TN:
SF:/home/ruslan/Facultad/Algo1 2017/TPI2017/TPIalgo1/salaDeReuniones_TPI/src/lib/googletest-master/googletest/include/gtest/gtest-message.h
FN:85,_ZN7testing7MessageD2Ev
FNDA:0,_ZN7testing7MessageD2Ev
FNF:1
FNH:0
DA:85,0
LF:1
LH:0
end_of_record
SF:/home/ruslan/Facultad/Algo1 2017/TPI2017/TPIalgo1/salaDeReuniones_TPI/src/lib/googletest-master/googletest/include/gtest/gtest-printers.h
FN:222,_ZN16testing_internal26DefaultPrintNonContainerToImEEvRKT_PSo
FN:222,_ZN16testing_internal26DefaultPrintNonContainerToIiEEvRKT_PSo
FN:275,_ZN7testing8internal19FormatForComparisonIiiE6FormatERKi
FN:275,_ZN7testing8internal19FormatForComparisonImmE6FormatERKm
FN:349,_ZN7testing8internal33FormatForComparisonFailureMessageIiiEESsRKT_RKT0_
FN:349,_ZN7testing8internal33FormatForComparisonFailureMessageImmEESsRKT_RKT0_
FN:442,_ZN7testing8internal14DefaultPrintToImEEvNS0_15WrapPrinterTypeILNS0_18DefaultPrinterTypeE3EEERKT_PSo
FN:442,_ZN7testing8internal14DefaultPrintToIiEEvNS0_15WrapPrinterTypeILNS0_18DefaultPrinterTypeE3EEERKT_PSo
FN:459,_ZN7testing8internal7PrintToImEEvRKT_PSo
FN:459,_ZN7testing8internal7PrintToIiEEvRKT_PSo
FN:714,_ZN7testing8internal16UniversalPrinterIiE5PrintERKiPSo
FN:714,_ZN7testing8internal16UniversalPrinterImE5PrintERKmPSo
FN:799,_ZN7testing8internal21UniversalTersePrinterIiE5PrintERKiPSo
FN:799,_ZN7testing8internal21UniversalTersePrinterImE5PrintERKmPSo
FN:868,_ZN7testing8internal14UniversalPrintImEEvRKT_PSo
FN:868,_ZN7testing8internal14UniversalPrintIiEEvRKT_PSo
FN:996,_ZN7testing13PrintToStringIiEESsRKT_
FN:996,_ZN7testing13PrintToStringImEESsRKT_
FNDA:0,_ZN16testing_internal26DefaultPrintNonContainerToIiEEvRKT_PSo
FNDA:0,_ZN16testing_internal26DefaultPrintNonContainerToImEEvRKT_PSo
FNDA:0,_ZN7testing8internal19FormatForComparisonIiiE6FormatERKi
FNDA:0,_ZN7testing8internal19FormatForComparisonImmE6FormatERKm
FNDA:0,_ZN7testing8internal33FormatForComparisonFailureMessageIiiEESsRKT_RKT0_
FNDA:0,_ZN7testing8internal33FormatForComparisonFailureMessageImmEESsRKT_RKT0_
FNDA:0,_ZN7testing8internal14DefaultPrintToIiEEvNS0_15WrapPrinterTypeILNS0_18DefaultPrinterTypeE3EEERKT_PSo
FNDA:0,_ZN7testing8internal14DefaultPrintToImEEvNS0_15WrapPrinterTypeILNS0_18DefaultPrinterTypeE3EEERKT_PSo
FNDA:0,_ZN7testing8internal7PrintToIiEEvRKT_PSo
FNDA:0,_ZN7testing8internal7PrintToImEEvRKT_PSo
FNDA:0,_ZN7testing8internal16UniversalPrinterIiE5PrintERKiPSo
FNDA:0,_ZN7testing8internal16UniversalPrinterImE5PrintERKmPSo
FNDA:0,_ZN7testing8internal21UniversalTersePrinterIiE5PrintERKiPSo
FNDA:0,_ZN7testing8internal21UniversalTersePrinterImE5PrintERKmPSo
FNDA:0,_ZN7testing8internal14UniversalPrintIiEEvRKT_PSo
FNDA:0,_ZN7testing8internal14UniversalPrintImEEvRKT_PSo
FNDA:0,_ZN7testing13PrintToStringIiEESsRKT_
FNDA:0,_ZN7testing13PrintToStringImEESsRKT_
FNF:18
FNH:0
DA:222,0
DA:249,0
DA:250,0
DA:275,0
DA:276,0
DA:349,0
DA:351,0
DA:442,0
DA:444,0
DA:445,0
DA:459,0
DA:481,0
DA:493,0
DA:494,0
DA:714,0
DA:723,0
DA:724,0
DA:799,0
DA:800,0
DA:801,0
DA:868,0
DA:872,0
DA:873,0
DA:996,0
DA:997,0
DA:998,0
DA:999,0
LF:27
LH:0
end_of_record
SF:/home/ruslan/Facultad/Algo1 2017/TPI2017/TPIalgo1/salaDeReuniones_TPI/src/lib/googletest-master/googletest/include/gtest/gtest.h
FN:256,_ZN7testing15AssertionResultD2Ev
FN:288,_ZNK7testing15AssertionResultcvbEv
FN:297,_ZNK7testing15AssertionResult7messageEv
FN:302,_ZNK7testing15AssertionResult15failure_messageEv
FN:389,_ZN7testing4Test13SetUpTestCaseEv
FN:397,_ZN7testing4Test16TearDownTestCaseEv
FN:474,_ZN7testing4Test5SetupEv
FN:1375,_ZN7testing8internal18CmpHelperEQFailureImmEENS_15AssertionResultEPKcS4_RKT_RKT0_
FN:1375,_ZN7testing8internal18CmpHelperEQFailureIiiEENS_15AssertionResultEPKcS4_RKT_RKT0_
FN:1387,_ZN7testing8internal11CmpHelperEQIiiEENS_15AssertionResultEPKcS4_RKT_RKT0_
FN:1387,_ZN7testing8internal11CmpHelperEQImmEENS_15AssertionResultEPKcS4_RKT_RKT0_
FN:1417,_ZN7testing8internal8EqHelperILb0EE7CompareImmEENS_15AssertionResultEPKcS6_RKT_RKT0_
FN:1417,_ZN7testing8internal8EqHelperILb0EE7CompareIiiEENS_15AssertionResultEPKcS6_RKT_RKT0_
FNDA:0,_ZN7testing15AssertionResultD2Ev
FNDA:0,_ZNK7testing15AssertionResultcvbEv
FNDA:0,_ZNK7testing15AssertionResult7messageEv
FNDA:0,_ZNK7testing15AssertionResult15failure_messageEv
FNDA:0,_ZN7testing4Test13SetUpTestCaseEv
FNDA:0,_ZN7testing4Test16TearDownTestCaseEv
FNDA:0,_ZN7testing4Test5SetupEv
FNDA:0,_ZN7testing8internal18CmpHelperEQFailureIiiEENS_15AssertionResultEPKcS4_RKT_RKT0_
FNDA:0,_ZN7testing8internal18CmpHelperEQFailureImmEENS_15AssertionResultEPKcS4_RKT_RKT0_
FNDA:0,_ZN7testing8internal11CmpHelperEQIiiEENS_15AssertionResultEPKcS4_RKT_RKT0_
FNDA:0,_ZN7testing8internal11CmpHelperEQImmEENS_15AssertionResultEPKcS4_RKT_RKT0_
FNDA:0,_ZN7testing8internal8EqHelperILb0EE7CompareIiiEENS_15AssertionResultEPKcS6_RKT_RKT0_
FNDA:0,_ZN7testing8internal8EqHelperILb0EE7CompareImmEENS_15AssertionResultEPKcS6_RKT_RKT0_
FNF:13
FNH:0
DA:256,0
DA:288,0
DA:297,0
DA:298,0
DA:302,0
DA:389,0
DA:397,0
DA:474,0
DA:1375,0
DA:1382,0
DA:1387,0
DA:1392,0
DA:1393,0
DA:1397,0
DA:1417,0
DA:1421,0
LF:16
LH:0
end_of_record
SF:/home/ruslan/Facultad/Algo1 2017/TPI2017/TPIalgo1/salaDeReuniones_TPI/src/lib/googletest-master/googletest/include/gtest/internal/gtest-internal.h
FN:466,_ZN7testing8internal15TestFactoryBaseD0Ev
FN:466,_ZN7testing8internal15TestFactoryBaseD2Ev
FN:473,_ZN7testing8internal15TestFactoryBaseC2Ev
FN:482,_ZN7testing8internal15TestFactoryImplI33flashElPerezosoTEST_sample02_TestED0Ev
FN:482,_ZN7testing8internal15TestFactoryImplI33flashElPerezosoTEST_sample02_TestEC2Ev
FN:482,_ZN7testing8internal15TestFactoryImplI33flashElPerezosoTEST_sample01_TestEC2Ev
FN:482,_ZN7testing8internal15TestFactoryImplI33flashElPerezosoTEST_sample01_TestED0Ev
FN:482,_ZN7testing8internal15TestFactoryImplI33flashElPerezosoTEST_sample02_TestED2Ev
FN:482,_ZN7testing8internal15TestFactoryImplI33flashElPerezosoTEST_sample01_TestED2Ev
FN:484,_ZN7testing8internal15TestFactoryImplI33flashElPerezosoTEST_sample02_TestE10CreateTestEv
FN:484,_ZN7testing8internal15TestFactoryImplI33flashElPerezosoTEST_sample01_TestE10CreateTestEv
FN:504,_ZN7testing8internal12CodeLocationD2Ev
FN:505,_ZN7testing8internal12CodeLocationC2ERKSsi
FNDA:0,_ZN7testing8internal15TestFactoryBaseD0Ev
FNDA:0,_ZN7testing8internal15TestFactoryBaseD2Ev
FNDA:0,_ZN7testing8internal15TestFactoryBaseC2Ev
FNDA:2,_ZN7testing8internal15TestFactoryImplI33flashElPerezosoTEST_sample01_TestED0Ev
FNDA:2,_ZN7testing8internal15TestFactoryImplI33flashElPerezosoTEST_sample01_TestED2Ev
FNDA:2,_ZN7testing8internal15TestFactoryImplI33flashElPerezosoTEST_sample02_TestED0Ev
FNDA:2,_ZN7testing8internal15TestFactoryImplI33flashElPerezosoTEST_sample02_TestED2Ev
FNDA:2,_ZN7testing8internal15TestFactoryImplI33flashElPerezosoTEST_sample02_TestEC2Ev
FNDA:2,_ZN7testing8internal15TestFactoryImplI33flashElPerezosoTEST_sample01_TestEC2Ev
FNDA:2,_ZN7testing8internal15TestFactoryImplI33flashElPerezosoTEST_sample01_TestE10CreateTestEv
FNDA:2,_ZN7testing8internal15TestFactoryImplI33flashElPerezosoTEST_sample02_TestE10CreateTestEv
FNDA:0,_ZN7testing8internal12CodeLocationD2Ev
FNDA:0,_ZN7testing8internal12CodeLocationC2ERKSsi
FNF:13
FNH:8
DA:466,0
DA:473,0
DA:482,12
DA:484,4
DA:504,0
DA:505,0
DA:506,0
LF:7
LH:2
end_of_record
SF:/home/ruslan/Facultad/Algo1 2017/TPI2017/TPIalgo1/salaDeReuniones_TPI/src/lib/googletest-master/googletest/include/gtest/internal/gtest-port.h
FN:1157,_ZN7testing8internal10scoped_ptrISt18basic_stringstreamIcSt11char_traitsIcESaIcEEED2Ev
FN:1157,_ZN7testing8internal10scoped_ptrISsED2Ev
FN:1160,_ZNK7testing8internal10scoped_ptrISsEptEv
FN:1161,_ZNK7testing8internal10scoped_ptrISsE3getEv
FN:1169,_ZN7testing8internal10scoped_ptrISt18basic_stringstreamIcSt11char_traitsIcESaIcEEE5resetEPS6_
FN:1169,_ZN7testing8internal10scoped_ptrISsE5resetEPSs
FNDA:0,_ZN7testing8internal10scoped_ptrISsED2Ev
FNDA:0,_ZN7testing8internal10scoped_ptrISt18basic_stringstreamIcSt11char_traitsIcESaIcEEED2Ev
FNDA:0,_ZNK7testing8internal10scoped_ptrISsEptEv
FNDA:0,_ZNK7testing8internal10scoped_ptrISsE3getEv
FNDA:0,_ZN7testing8internal10scoped_ptrISt18basic_stringstreamIcSt11char_traitsIcESaIcEEE5resetEPS6_
FNDA:0,_ZN7testing8internal10scoped_ptrISsE5resetEPSs
FNF:6
FNH:0
DA:1157,0
DA:1160,0
DA:1161,0
DA:1169,0
DA:1170,0
DA:1171,0
DA:1172,0
DA:1174,0
DA:1176,0
LF:9
LH:0
end_of_record
SF:/home/ruslan/Facultad/Algo1 2017/TPI2017/TPIalgo1/salaDeReuniones_TPI/src/tests/flashElPerezosoTEST.cpp
FN:7,_Z41__static_initialization_and_destruction_0ii
FN:7,_ZN33flashElPerezosoTEST_sample01_TestD0Ev
FN:7,_ZN33flashElPerezosoTEST_sample01_Test8TestBodyEv
FN:7,_ZN33flashElPerezosoTEST_sample01_TestC2Ev
FN:7,_ZN33flashElPerezosoTEST_sample01_TestD2Ev
FN:34,_ZN33flashElPerezosoTEST_sample02_TestD0Ev
FN:34,_ZN33flashElPerezosoTEST_sample02_Test8TestBodyEv
FN:34,_ZN33flashElPerezosoTEST_sample02_TestD2Ev
FN:34,_ZN33flashElPerezosoTEST_sample02_TestC2Ev
FN:61,_GLOBAL__sub_I__ZN33flashElPerezosoTEST_sample01_Test10test_info_E
FNDA:2,_ZN33flashElPerezosoTEST_sample01_TestD0Ev
FNDA:2,_ZN33flashElPerezosoTEST_sample01_TestD2Ev
FNDA:2,_ZN33flashElPerezosoTEST_sample01_Test8TestBodyEv
FNDA:2,_ZN33flashElPerezosoTEST_sample01_TestC2Ev
FNDA:2,_ZN33flashElPerezosoTEST_sample02_TestD0Ev
FNDA:2,_ZN33flashElPerezosoTEST_sample02_TestD2Ev
FNDA:2,_ZN33flashElPerezosoTEST_sample02_Test8TestBodyEv
FNDA:2,_ZN33flashElPerezosoTEST_sample02_TestC2Ev
FNDA:2,_GLOBAL__sub_I__ZN33flashElPerezosoTEST_sample01_Test10test_info_E
FNDA:2,_Z41__static_initialization_and_destruction_0ii
FNF:10
FNH:10
DA:7,10
DA:8,2
DA:9,2
DA:13,2
DA:18,4
DA:20,4
DA:22,2
DA:24,6
DA:26,4
DA:28,48
DA:29,44
DA:31,2
DA:34,10
DA:35,2
DA:36,2
DA:41,2
DA:47,4
DA:49,4
DA:51,2
DA:53,8
DA:55,6
DA:57,72
DA:58,66
DA:60,2
DA:61,6
LF:25
LH:25
end_of_record
SF:/usr/include/c++/4.8/bits/alloc_traits.h
FN:337,_ZNSt16allocator_traitsISaISt6vectorIiSaIiEEEE9_S_selectIKS3_EENSt9enable_ifIXntsrNS4_15__select_helperIT_EE5valueES9_E4typeERS9_
FN:337,_ZNSt16allocator_traitsISaIiEE9_S_selectIKS0_EENSt9enable_ifIXntsrNS1_15__select_helperIT_EE5valueES6_E4typeERS6_
FN:427,_ZNSt16allocator_traitsISaISt6vectorIiSaIiEEEE37select_on_container_copy_constructionERKS3_
FN:427,_ZNSt16allocator_traitsISaIiEE37select_on_container_copy_constructionERKS0_
FNDA:0,_ZNSt16allocator_traitsISaIiEE9_S_selectIKS0_EENSt9enable_ifIXntsrNS1_15__select_helperIT_EE5valueES6_E4typeERS6_
FNDA:0,_ZNSt16allocator_traitsISaISt6vectorIiSaIiEEEE9_S_selectIKS3_EENSt9enable_ifIXntsrNS4_15__select_helperIT_EE5valueES9_E4typeERS9_
FNDA:0,_ZNSt16allocator_traitsISaIiEE37select_on_container_copy_constructionERKS0_
FNDA:0,_ZNSt16allocator_traitsISaISt6vectorIiSaIiEEEE37select_on_container_copy_constructionERKS3_
FNF:4
FNH:0
DA:337,0
DA:338,0
DA:427,0
DA:428,0
LF:4
LH:0
end_of_record
SF:/usr/include/c++/4.8/bits/allocator.h
FN:113,_ZNSaISt6vectorIiSaIiEEEC2Ev
FN:113,_ZNSaIiEC2Ev
FN:115,_ZNSaIiEC2ERKS_
FN:115,_ZNSaISt6vectorIiSaIiEEEC2ERKS2_
FN:121,_ZNSaISt6vectorIiSaIiEEED2Ev
FN:121,_ZNSaIiED2Ev
FN:133,_ZSteqIcEbRKSaIT_ES3_
FNDA:0,_ZNSaISt6vectorIiSaIiEEEC2Ev
FNDA:0,_ZNSaIiEC2Ev
FNDA:0,_ZNSaIiEC2ERKS_
FNDA:0,_ZNSaISt6vectorIiSaIiEEEC2ERKS2_
FNDA:0,_ZNSaISt6vectorIiSaIiEEED2Ev
FNDA:0,_ZNSaIiED2Ev
FNDA:0,_ZSteqIcEbRKSaIT_ES3_
FNF:7
FNH:0
DA:113,0
DA:115,0
DA:116,0
DA:121,0
DA:133,0
DA:134,0
LF:6
LH:0
end_of_record
SF:/usr/include/c++/4.8/bits/basic_string.h
FN:272,_ZNSs12_Alloc_hiderD2Ev
FN:1721,_ZNSs16_S_construct_auxIPcEES0_T_S1_RKSaIcESt12__false_type
FN:1743,_ZNSs12_S_constructIPcEES0_T_S1_RKSaIcE
FNDA:0,_ZNSs12_Alloc_hiderD2Ev
FNDA:0,_ZNSs16_S_construct_auxIPcEES0_T_S1_RKSaIcESt12__false_type
FNDA:0,_ZNSs12_S_constructIPcEES0_T_S1_RKSaIcE
FNF:3
FNH:0
DA:272,0
DA:1721,0
DA:1725,0
DA:1743,0
DA:1746,0
LF:5
LH:0
end_of_record
SF:/usr/include/c++/4.8/bits/basic_string.tcc
FN:123,_ZNSs12_S_constructIPcEES0_T_S1_RKSaIcESt20forward_iterator_tag
FN:227,_ZNSsC2IPcEET_S1_RKSaIcE
FNDA:0,_ZNSs12_S_constructIPcEES0_T_S1_RKSaIcESt20forward_iterator_tag
FNDA:0,_ZNSsC2IPcEET_S1_RKSaIcE
FNF:2
FNH:0
DA:123,0
DA:128,0
DA:129,0
DA:132,0
DA:133,0
DA:136,0
DA:138,0
DA:140,0
DA:141,=====
DA:143,=====
DA:144,=====
DA:146,0
DA:147,0
DA:227,0
DA:229,0
DA:230,0
LF:16
LH:0
end_of_record
SF:/usr/include/c++/4.8/bits/char_traits.h
FN:242,_ZNSt11char_traitsIcE6assignERcRKc
FN:270,_ZNSt11char_traitsIcE4copyEPcPKcm
FNDA:0,_ZNSt11char_traitsIcE6assignERcRKc
FNDA:0,_ZNSt11char_traitsIcE4copyEPcPKcm
FNF:2
FNH:0
DA:242,0
DA:243,0
DA:270,0
DA:271,0
LF:4
LH:0
end_of_record
SF:/usr/include/c++/4.8/bits/ios_base.h
FN:123,_ZStorSt13_Ios_OpenmodeS_
FNDA:0,_ZStorSt13_Ios_OpenmodeS_
FNF:1
FNH:0
DA:123,0
DA:124,0
LF:2
LH:0
end_of_record
SF:/usr/include/c++/4.8/bits/move.h
FN:47,_ZSt11__addressofISt6vectorIiSaIiEEEPT_RS3_
FN:76,_ZSt7forwardIRKSt6vectorIiSaIiEEEOT_RNSt16remove_referenceIS5_E4typeE
FNDA:0,_ZSt11__addressofISt6vectorIiSaIiEEEPT_RS3_
FNDA:0,_ZSt7forwardIRKSt6vectorIiSaIiEEEOT_RNSt16remove_referenceIS5_E4typeE
FNF:2
FNH:0
DA:47,0
DA:50,0
DA:76,0
DA:77,0
LF:4
LH:0
end_of_record
SF:/usr/include/c++/4.8/bits/stl_algobase.h
FN:277,_ZSt12__niter_baseIPKiENSt11_Niter_baseIT_E13iterator_typeES3_
FN:277,_ZSt12__niter_baseIN9__gnu_cxx17__normal_iteratorIPKiSt6vectorIiSaIiEEEEENSt11_Niter_baseIT_E13iterator_typeES9_
FN:277,_ZSt12__niter_baseIPiENSt11_Niter_baseIT_E13iterator_typeES2_
FN:288,_ZSt12__miter_baseIN9__gnu_cxx17__normal_iteratorIPKiSt6vectorIiSaIiEEEEENSt11_Miter_baseIT_E13iterator_typeES9_
FN:288,_ZSt12__miter_baseIPKiENSt11_Miter_baseIT_E13iterator_typeES3_
FN:368,_ZNSt11__copy_moveILb0ELb1ESt26random_access_iterator_tagE8__copy_mIiEEPT_PKS3_S6_S4_
FN:379,_ZSt13__copy_move_aILb0EPKiPiET1_T0_S4_S3_
FN:424,_ZSt14__copy_move_a2ILb0EPKiPiET1_T0_S4_S3_
FN:424,_ZSt14__copy_move_a2ILb0EN9__gnu_cxx17__normal_iteratorIPKiSt6vectorIiSaIiEEEEPiET1_T0_SA_S9_
FN:450,_ZSt4copyIPKiPiET0_T_S4_S3_
FN:450,_ZSt4copyIN9__gnu_cxx17__normal_iteratorIPKiSt6vectorIiSaIiEEEEPiET0_T_SA_S9_
FNDA:0,_ZSt12__niter_baseIN9__gnu_cxx17__normal_iteratorIPKiSt6vectorIiSaIiEEEEENSt11_Niter_baseIT_E13iterator_typeES9_
FNDA:0,_ZSt12__niter_baseIPiENSt11_Niter_baseIT_E13iterator_typeES2_
FNDA:0,_ZSt12__niter_baseIPKiENSt11_Niter_baseIT_E13iterator_typeES3_
FNDA:0,_ZSt12__miter_baseIN9__gnu_cxx17__normal_iteratorIPKiSt6vectorIiSaIiEEEEENSt11_Miter_baseIT_E13iterator_typeES9_
FNDA:0,_ZSt12__miter_baseIPKiENSt11_Miter_baseIT_E13iterator_typeES3_
FNDA:0,_ZNSt11__copy_moveILb0ELb1ESt26random_access_iterator_tagE8__copy_mIiEEPT_PKS3_S6_S4_
FNDA:0,_ZSt13__copy_move_aILb0EPKiPiET1_T0_S4_S3_
FNDA:0,_ZSt14__copy_move_a2ILb0EN9__gnu_cxx17__normal_iteratorIPKiSt6vectorIiSaIiEEEEPiET1_T0_SA_S9_
FNDA:0,_ZSt14__copy_move_a2ILb0EPKiPiET1_T0_S4_S3_
FNDA:0,_ZSt4copyIN9__gnu_cxx17__normal_iteratorIPKiSt6vectorIiSaIiEEEEPiET0_T_SA_S9_
FNDA:0,_ZSt4copyIPKiPiET0_T_S4_S3_
FNF:11
FNH:0
DA:277,0
DA:278,0
DA:288,0
DA:289,0
DA:368,0
DA:370,0
DA:371,0
DA:372,0
DA:373,0
DA:379,0
DA:387,0
DA:390,0
DA:424,0
DA:428,0
DA:450,0
DA:460,0
LF:16
LH:0
end_of_record
SF:/usr/include/c++/4.8/bits/stl_construct.h
FN:74,_ZSt10_ConstructISt6vectorIiSaIiEEIRKS2_EEvPT_DpOT0_
FN:92,_ZSt8_DestroyISt6vectorIiSaIiEEEvPT_
FN:100,_ZNSt12_Destroy_auxILb0EE9__destroyIPSt6vectorIiSaIiEEEEvT_S6_
FN:112,_ZNSt12_Destroy_auxILb1EE9__destroyIPiEEvT_S3_
FN:122,_ZSt8_DestroyIPSt6vectorIiSaIiEEEvT_S4_
FN:122,_ZSt8_DestroyIPiEvT_S1_
FN:148,_ZSt8_DestroyIPSt6vectorIiSaIiEES2_EvT_S4_RSaIT0_E
FN:148,_ZSt8_DestroyIPiiEvT_S1_RSaIT0_E
FNDA:0,_ZSt10_ConstructISt6vectorIiSaIiEEIRKS2_EEvPT_DpOT0_
FNDA:0,_ZSt8_DestroyISt6vectorIiSaIiEEEvPT_
FNDA:0,_ZNSt12_Destroy_auxILb0EE9__destroyIPSt6vectorIiSaIiEEEEvT_S6_
FNDA:0,_ZNSt12_Destroy_auxILb1EE9__destroyIPiEEvT_S3_
FNDA:0,_ZSt8_DestroyIPSt6vectorIiSaIiEEEvT_S4_
FNDA:0,_ZSt8_DestroyIPiEvT_S1_
FNDA:0,_ZSt8_DestroyIPSt6vectorIiSaIiEES2_EvT_S4_RSaIT0_E
FNDA:0,_ZSt8_DestroyIPiiEvT_S1_RSaIT0_E
FNF:8
FNH:0
DA:74,0
DA:75,0
DA:92,0
DA:93,0
DA:100,0
DA:102,0
DA:103,0
DA:104,0
DA:112,0
DA:122,0
DA:126,0
DA:128,0
DA:148,0
DA:151,0
DA:152,0
LF:15
LH:0
end_of_record
SF:/usr/include/c++/4.8/bits/stl_iterator.h
FN:726,_ZN9__gnu_cxx17__normal_iteratorIPKiSt6vectorIiSaIiEEEC2ERKS2_
FN:726,_ZN9__gnu_cxx17__normal_iteratorIPKSt6vectorIiSaIiEES1_IS3_SaIS3_EEEC2ERKS5_
FN:738,_ZNK9__gnu_cxx17__normal_iteratorIPKSt6vectorIiSaIiEES1_IS3_SaIS3_EEEdeEv
FN:746,_ZN9__gnu_cxx17__normal_iteratorIPKSt6vectorIiSaIiEES1_IS3_SaIS3_EEEppEv
FN:790,_ZNK9__gnu_cxx17__normal_iteratorIPKiSt6vectorIiSaIiEEE4baseEv
FN:790,_ZNK9__gnu_cxx17__normal_iteratorIPKSt6vectorIiSaIiEES1_IS3_SaIS3_EEE4baseEv
FN:823,_ZN9__gnu_cxxneIPKSt6vectorIiSaIiEES1_IS3_SaIS3_EEEEbRKNS_17__normal_iteratorIT_T0_EESD_
FNDA:0,_ZN9__gnu_cxx17__normal_iteratorIPKiSt6vectorIiSaIiEEEC2ERKS2_
FNDA:0,_ZN9__gnu_cxx17__normal_iteratorIPKSt6vectorIiSaIiEES1_IS3_SaIS3_EEEC2ERKS5_
FNDA:0,_ZNK9__gnu_cxx17__normal_iteratorIPKSt6vectorIiSaIiEES1_IS3_SaIS3_EEEdeEv
FNDA:0,_ZN9__gnu_cxx17__normal_iteratorIPKSt6vectorIiSaIiEES1_IS3_SaIS3_EEEppEv
FNDA:0,_ZNK9__gnu_cxx17__normal_iteratorIPKiSt6vectorIiSaIiEEE4baseEv
FNDA:0,_ZNK9__gnu_cxx17__normal_iteratorIPKSt6vectorIiSaIiEES1_IS3_SaIS3_EEE4baseEv
FNDA:0,_ZN9__gnu_cxxneIPKSt6vectorIiSaIiEES1_IS3_SaIS3_EEEEbRKNS_17__normal_iteratorIT_T0_EESD_
FNF:7
FNH:0
DA:726,0
DA:738,0
DA:739,0
DA:746,0
DA:748,0
DA:749,0
DA:790,0
DA:791,0
DA:823,0
DA:825,0
LF:10
LH:0
end_of_record
SF:/usr/include/c++/4.8/bits/stl_iterator_base_funcs.h
FN:90,_ZSt10__distanceIPKiENSt15iterator_traitsIT_E15difference_typeES3_S3_St26random_access_iterator_tag
FN:90,_ZSt10__distanceIPKSt6vectorIiSaIiEEENSt15iterator_traitsIT_E15difference_typeES6_S6_St26random_access_iterator_tag
FN:90,_ZSt10__distanceIPcENSt15iterator_traitsIT_E15difference_typeES2_S2_St26random_access_iterator_tag
FN:114,_ZSt8distanceIPcENSt15iterator_traitsIT_E15difference_typeES2_S2_
FN:114,_ZSt8distanceIPKSt6vectorIiSaIiEEENSt15iterator_traitsIT_E15difference_typeES6_S6_
FN:114,_ZSt8distanceIPKiENSt15iterator_traitsIT_E15difference_typeES3_S3_
FNDA:0,_ZSt10__distanceIPcENSt15iterator_traitsIT_E15difference_typeES2_S2_St26random_access_iterator_tag
FNDA:0,_ZSt10__distanceIPKSt6vectorIiSaIiEEENSt15iterator_traitsIT_E15difference_typeES6_S6_St26random_access_iterator_tag
FNDA:0,_ZSt10__distanceIPKiENSt15iterator_traitsIT_E15difference_typeES3_S3_St26random_access_iterator_tag
FNDA:0,_ZSt8distanceIPcENSt15iterator_traitsIT_E15difference_typeES2_S2_
FNDA:0,_ZSt8distanceIPKSt6vectorIiSaIiEEENSt15iterator_traitsIT_E15difference_typeES6_S6_
FNDA:0,_ZSt8distanceIPKiENSt15iterator_traitsIT_E15difference_typeES3_S3_
FNF:6
FNH:0
DA:90,0
DA:96,0
DA:114,0
DA:118,0
LF:4
LH:0
end_of_record
SF:/usr/include/c++/4.8/bits/stl_iterator_base_types.h
FN:201,_ZSt19__iterator_categoryIPcENSt15iterator_traitsIT_E17iterator_categoryERKS2_
FN:201,_ZSt19__iterator_categoryIPKiENSt15iterator_traitsIT_E17iterator_categoryERKS3_
FN:201,_ZSt19__iterator_categoryIPKSt6vectorIiSaIiEEENSt15iterator_traitsIT_E17iterator_categoryERKS6_
FN:212,_ZNSt10_Iter_baseIPiLb0EE7_S_baseES0_
FN:212,_ZNSt10_Iter_baseIPKiLb0EE7_S_baseES1_
FN:212,_ZNSt10_Iter_baseIN9__gnu_cxx17__normal_iteratorIPKiSt6vectorIiSaIiEEEELb0EE7_S_baseES7_
FN:220,_ZNSt10_Iter_baseIN9__gnu_cxx17__normal_iteratorIPKiSt6vectorIiSaIiEEEELb1EE7_S_baseES7_
FNDA:0,_ZSt19__iterator_categoryIPcENSt15iterator_traitsIT_E17iterator_categoryERKS2_
FNDA:0,_ZSt19__iterator_categoryIPKSt6vectorIiSaIiEEENSt15iterator_traitsIT_E17iterator_categoryERKS6_
FNDA:0,_ZSt19__iterator_categoryIPKiENSt15iterator_traitsIT_E17iterator_categoryERKS3_
FNDA:0,_ZNSt10_Iter_baseIN9__gnu_cxx17__normal_iteratorIPKiSt6vectorIiSaIiEEEELb0EE7_S_baseES7_
FNDA:0,_ZNSt10_Iter_baseIPiLb0EE7_S_baseES0_
FNDA:0,_ZNSt10_Iter_baseIPKiLb0EE7_S_baseES1_
FNDA:0,_ZNSt10_Iter_baseIN9__gnu_cxx17__normal_iteratorIPKiSt6vectorIiSaIiEEEELb1EE7_S_baseES7_
FNF:7
FNH:0
DA:201,0
DA:202,0
DA:212,0
DA:213,0
DA:220,0
DA:221,0
LF:6
LH:0
end_of_record
SF:/usr/include/c++/4.8/bits/stl_uninitialized.h
FN:68,_ZNSt20__uninitialized_copyILb0EE13__uninit_copyIN9__gnu_cxx17__normal_iteratorIPKSt6vectorIiSaIiEES4_IS6_SaIS6_EEEEPS6_EET0_T_SE_SD_
FN:68,_ZNSt20__uninitialized_copyILb0EE13__uninit_copyIPKSt6vectorIiSaIiEEPS4_EET0_T_S9_S8_
FN:91,_ZNSt20__uninitialized_copyILb1EE13__uninit_copyIN9__gnu_cxx17__normal_iteratorIPKiSt6vectorIiSaIiEEEEPiEET0_T_SC_SB_
FN:91,_ZNSt20__uninitialized_copyILb1EE13__uninit_copyIPKiPiEET0_T_S6_S5_
FN:107,_ZSt18uninitialized_copyIPKiPiET0_T_S4_S3_
FN:107,_ZSt18uninitialized_copyIN9__gnu_cxx17__normal_iteratorIPKiSt6vectorIiSaIiEEEEPiET0_T_SA_S9_
FN:107,_ZSt18uninitialized_copyIN9__gnu_cxx17__normal_iteratorIPKSt6vectorIiSaIiEES2_IS4_SaIS4_EEEEPS4_ET0_T_SC_SB_
FN:107,_ZSt18uninitialized_copyIPKSt6vectorIiSaIiEEPS2_ET0_T_S7_S6_
FN:256,_ZSt22__uninitialized_copy_aIN9__gnu_cxx17__normal_iteratorIPKSt6vectorIiSaIiEES2_IS4_SaIS4_EEEEPS4_S4_ET0_T_SC_SB_RSaIT1_E
FN:256,_ZSt22__uninitialized_copy_aIN9__gnu_cxx17__normal_iteratorIPKiSt6vectorIiSaIiEEEEPiiET0_T_SA_S9_RSaIT1_E
FN:256,_ZSt22__uninitialized_copy_aIPKiPiiET0_T_S4_S3_RSaIT1_E
FN:256,_ZSt22__uninitialized_copy_aIPKSt6vectorIiSaIiEEPS2_S2_ET0_T_S7_S6_RSaIT1_E
FNDA:0,_ZNSt20__uninitialized_copyILb0EE13__uninit_copyIPKSt6vectorIiSaIiEEPS4_EET0_T_S9_S8_
FNDA:0,_ZNSt20__uninitialized_copyILb0EE13__uninit_copyIN9__gnu_cxx17__normal_iteratorIPKSt6vectorIiSaIiEES4_IS6_SaIS6_EEEEPS6_EET0_T_SE_SD_
FNDA:0,_ZNSt20__uninitialized_copyILb1EE13__uninit_copyIN9__gnu_cxx17__normal_iteratorIPKiSt6vectorIiSaIiEEEEPiEET0_T_SC_SB_
FNDA:0,_ZNSt20__uninitialized_copyILb1EE13__uninit_copyIPKiPiEET0_T_S6_S5_
FNDA:0,_ZSt18uninitialized_copyIN9__gnu_cxx17__normal_iteratorIPKiSt6vectorIiSaIiEEEEPiET0_T_SA_S9_
FNDA:0,_ZSt18uninitialized_copyIPKSt6vectorIiSaIiEEPS2_ET0_T_S7_S6_
FNDA:0,_ZSt18uninitialized_copyIPKiPiET0_T_S4_S3_
FNDA:0,_ZSt18uninitialized_copyIN9__gnu_cxx17__normal_iteratorIPKSt6vectorIiSaIiEES2_IS4_SaIS4_EEEEPS4_ET0_T_SC_SB_
FNDA:0,_ZSt22__uninitialized_copy_aIN9__gnu_cxx17__normal_iteratorIPKiSt6vectorIiSaIiEEEEPiiET0_T_SA_S9_RSaIT1_E
FNDA:0,_ZSt22__uninitialized_copy_aIPKSt6vectorIiSaIiEEPS2_S2_ET0_T_S7_S6_RSaIT1_E
FNDA:0,_ZSt22__uninitialized_copy_aIPKiPiiET0_T_S4_S3_RSaIT1_E
FNDA:0,_ZSt22__uninitialized_copy_aIN9__gnu_cxx17__normal_iteratorIPKSt6vectorIiSaIiEES2_IS4_SaIS4_EEEEPS4_S4_ET0_T_SC_SB_RSaIT1_E
FNF:12
FNH:0
DA:68,0
DA:71,0
DA:74,0
DA:75,0
DA:76,0
DA:78,=====
DA:80,=====
DA:81,=====
DA:91,0
DA:93,0
DA:107,0
DA:117,0
DA:256,0
DA:258,0
LF:14
LH:0
end_of_record
SF:/usr/include/c++/4.8/bits/stl_vector.h
FN:79,_ZNSt12_Vector_baseIiSaIiEE12_Vector_implD2Ev
FN:79,_ZNSt12_Vector_baseISt6vectorIiSaIiEESaIS2_EE12_Vector_implD2Ev
FN:90,_ZNSt12_Vector_baseIiSaIiEE12_Vector_implC2ERKS0_
FN:90,_ZNSt12_Vector_baseISt6vectorIiSaIiEESaIS2_EE12_Vector_implC2ERKS3_
FN:113,_ZNSt12_Vector_baseISt6vectorIiSaIiEESaIS2_EE19_M_get_Tp_allocatorEv
FN:113,_ZNSt12_Vector_baseIiSaIiEE19_M_get_Tp_allocatorEv
FN:117,_ZNKSt12_Vector_baseISt6vectorIiSaIiEESaIS2_EE19_M_get_Tp_allocatorEv
FN:117,_ZNKSt12_Vector_baseIiSaIiEE19_M_get_Tp_allocatorEv
FN:127,_ZNSt12_Vector_baseISt6vectorIiSaIiEESaIS2_EEC2ERKS3_
FN:127,_ZNSt12_Vector_baseIiSaIiEEC2ERKS0_
FN:134,_ZNSt12_Vector_baseISt6vectorIiSaIiEESaIS2_EEC2EmRKS3_
FN:134,_ZNSt12_Vector_baseIiSaIiEEC2EmRKS0_
FN:159,_ZNSt12_Vector_baseISt6vectorIiSaIiEESaIS2_EED2Ev
FN:159,_ZNSt12_Vector_baseIiSaIiEED2Ev
FN:167,_ZNSt12_Vector_baseIiSaIiEE11_M_allocateEm
FN:167,_ZNSt12_Vector_baseISt6vectorIiSaIiEESaIS2_EE11_M_allocateEm
FN:171,_ZNSt12_Vector_baseISt6vectorIiSaIiEESaIS2_EE13_M_deallocateEPS2_m
FN:171,_ZNSt12_Vector_baseIiSaIiEE13_M_deallocateEPim
FN:179,_ZNSt12_Vector_baseIiSaIiEE17_M_create_storageEm
FN:179,_ZNSt12_Vector_baseISt6vectorIiSaIiEESaIS2_EE17_M_create_storageEm
FN:310,_ZNSt6vectorIiSaIiEEC2ERKS1_
FN:310,_ZNSt6vectorIS_IiSaIiEESaIS1_EEC2ERKS3_
FN:364,_ZNSt6vectorIiSaIiEEC2ESt16initializer_listIiERKS0_
FN:364,_ZNSt6vectorIS_IiSaIiEESaIS1_EEC2ESt16initializer_listIS1_ERKS2_
FN:414,_ZNSt6vectorIiSaIiEED2Ev
FN:414,_ZNSt6vectorIS_IiSaIiEESaIS1_EED2Ev
FN:547,_ZNKSt6vectorIS_IiSaIiEESaIS1_EE5beginEv
FN:547,_ZNKSt6vectorIiSaIiEE5beginEv
FN:565,_ZNKSt6vectorIS_IiSaIiEESaIS1_EE3endEv
FN:565,_ZNKSt6vectorIiSaIiEE3endEv
FN:645,_ZNKSt6vectorIS_IiSaIiEESaIS1_EE4sizeEv
FN:645,_ZNKSt6vectorIiSaIiEE4sizeEv
FN:770,_ZNSt6vectorIS_IiSaIiEESaIS1_EEixEm
FN:770,_ZNSt6vectorIiSaIiEEixEm
FN:1197,_ZNSt6vectorIiSaIiEE19_M_range_initializeIPKiEEvT_S5_St20forward_iterator_tag
FN:1197,_ZNSt6vectorIS_IiSaIiEESaIS1_EE19_M_range_initializeIPKS1_EEvT_S7_St20forward_iterator_tag
FNDA:0,_ZNSt12_Vector_baseISt6vectorIiSaIiEESaIS2_EE12_Vector_implD2Ev
FNDA:0,_ZNSt12_Vector_baseIiSaIiEE12_Vector_implD2Ev
FNDA:0,_ZNSt12_Vector_baseISt6vectorIiSaIiEESaIS2_EE12_Vector_implC2ERKS3_
FNDA:0,_ZNSt12_Vector_baseIiSaIiEE12_Vector_implC2ERKS0_
FNDA:0,_ZNSt12_Vector_baseISt6vectorIiSaIiEESaIS2_EE19_M_get_Tp_allocatorEv
FNDA:0,_ZNSt12_Vector_baseIiSaIiEE19_M_get_Tp_allocatorEv
FNDA:0,_ZNKSt12_Vector_baseIiSaIiEE19_M_get_Tp_allocatorEv
FNDA:0,_ZNKSt12_Vector_baseISt6vectorIiSaIiEESaIS2_EE19_M_get_Tp_allocatorEv
FNDA:0,_ZNSt12_Vector_baseISt6vectorIiSaIiEESaIS2_EEC2ERKS3_
FNDA:0,_ZNSt12_Vector_baseIiSaIiEEC2ERKS0_
FNDA:0,_ZNSt12_Vector_baseIiSaIiEEC2EmRKS0_
FNDA:0,_ZNSt12_Vector_baseISt6vectorIiSaIiEESaIS2_EEC2EmRKS3_
FNDA:0,_ZNSt12_Vector_baseISt6vectorIiSaIiEESaIS2_EED2Ev
FNDA:0,_ZNSt12_Vector_baseIiSaIiEED2Ev
FNDA:0,_ZNSt12_Vector_baseISt6vectorIiSaIiEESaIS2_EE11_M_allocateEm
FNDA:0,_ZNSt12_Vector_baseIiSaIiEE11_M_allocateEm
FNDA:0,_ZNSt12_Vector_baseISt6vectorIiSaIiEESaIS2_EE13_M_deallocateEPS2_m
FNDA:0,_ZNSt12_Vector_baseIiSaIiEE13_M_deallocateEPim
FNDA:0,_ZNSt12_Vector_baseIiSaIiEE17_M_create_storageEm
FNDA:0,_ZNSt12_Vector_baseISt6vectorIiSaIiEESaIS2_EE17_M_create_storageEm
FNDA:0,_ZNSt6vectorIiSaIiEEC2ERKS1_
FNDA:0,_ZNSt6vectorIS_IiSaIiEESaIS1_EEC2ERKS3_
FNDA:0,_ZNSt6vectorIS_IiSaIiEESaIS1_EEC2ESt16initializer_listIS1_ERKS2_
FNDA:0,_ZNSt6vectorIiSaIiEEC2ESt16initializer_listIiERKS0_
FNDA:0,_ZNSt6vectorIS_IiSaIiEESaIS1_EED2Ev
FNDA:0,_ZNSt6vectorIiSaIiEED2Ev
FNDA:0,_ZNKSt6vectorIiSaIiEE5beginEv
FNDA:0,_ZNKSt6vectorIS_IiSaIiEESaIS1_EE5beginEv
FNDA:0,_ZNKSt6vectorIiSaIiEE3endEv
FNDA:0,_ZNKSt6vectorIS_IiSaIiEESaIS1_EE3endEv
FNDA:0,_ZNKSt6vectorIiSaIiEE4sizeEv
FNDA:0,_ZNKSt6vectorIS_IiSaIiEESaIS1_EE4sizeEv
FNDA:0,_ZNSt6vectorIiSaIiEEixEm
FNDA:0,_ZNSt6vectorIS_IiSaIiEESaIS1_EEixEm
FNDA:0,_ZNSt6vectorIS_IiSaIiEESaIS1_EE19_M_range_initializeIPKS1_EEvT_S7_St20forward_iterator_tag
FNDA:0,_ZNSt6vectorIiSaIiEE19_M_range_initializeIPKiEEvT_S5_St20forward_iterator_tag
FNF:36
FNH:0
DA:79,0
DA:90,0
DA:91,0
DA:92,0
DA:113,0
DA:114,0
DA:117,0
DA:118,0
DA:127,0
DA:128,0
DA:134,0
DA:135,0
DA:136,0
DA:159,0
DA:160,0
DA:161,0
DA:167,0
DA:168,0
DA:171,0
DA:173,0
DA:174,0
DA:175,0
DA:179,0
DA:181,0
DA:182,0
DA:183,0
DA:184,0
DA:310,0
DA:312,0
DA:313,0
DA:316,0
DA:317,0
DA:364,0
DA:366,0
DA:368,0
DA:369,0
DA:370,0
DA:414,0
DA:415,0
DA:416,0
DA:547,0
DA:548,0
DA:565,0
DA:566,0
DA:645,0
DA:646,0
DA:770,0
DA:771,0
DA:1197,0
DA:1200,0
DA:1201,0
DA:1202,0
DA:1203,0
DA:1206,0
DA:1207,0
LF:55
LH:0
end_of_record
SF:/usr/include/c++/4.8/ext/alloc_traits.h
FN:166,_ZN9__gnu_cxx14__alloc_traitsISaIiEE17_S_select_on_copyERKS1_
FN:166,_ZN9__gnu_cxx14__alloc_traitsISaISt6vectorIiSaIiEEEE17_S_select_on_copyERKS4_
FNDA:0,_ZN9__gnu_cxx14__alloc_traitsISaIiEE17_S_select_on_copyERKS1_
FNDA:0,_ZN9__gnu_cxx14__alloc_traitsISaISt6vectorIiSaIiEEEE17_S_select_on_copyERKS4_
FNF:2
FNH:0
DA:166,0
DA:167,0
LF:2
LH:0
end_of_record
SF:/usr/include/c++/4.8/ext/atomicity.h
FN:48,_ZN9__gnu_cxxL18__exchange_and_addEPVii
FN:65,_ZN9__gnu_cxxL25__exchange_and_add_singleEPii
FN:78,_ZN9__gnu_cxxL27__exchange_and_add_dispatchEPii
FNDA:0,_ZN9__gnu_cxxL18__exchange_and_addEPVii
FNDA:0,_ZN9__gnu_cxxL25__exchange_and_add_singleEPii
FNDA:0,_ZN9__gnu_cxxL27__exchange_and_add_dispatchEPii
FNF:3
FNH:0
DA:48,0
DA:49,0
DA:65,0
DA:67,0
DA:68,0
DA:69,0
DA:78,0
DA:81,0
DA:82,0
DA:84,0
LF:10
LH:0
end_of_record
SF:/usr/include/c++/4.8/ext/new_allocator.h
FN:79,_ZN9__gnu_cxx13new_allocatorIcEC2Ev
FN:79,_ZN9__gnu_cxx13new_allocatorISt6vectorIiSaIiEEEC2Ev
FN:79,_ZN9__gnu_cxx13new_allocatorIiEC2Ev
FN:81,_ZN9__gnu_cxx13new_allocatorIiEC2ERKS1_
FN:81,_ZN9__gnu_cxx13new_allocatorISt6vectorIiSaIiEEEC2ERKS4_
FN:81,_ZN9__gnu_cxx13new_allocatorIcEC2ERKS1_
FN:86,_ZN9__gnu_cxx13new_allocatorIiED2Ev
FN:86,_ZN9__gnu_cxx13new_allocatorISt6vectorIiSaIiEEED2Ev
FN:86,_ZN9__gnu_cxx13new_allocatorIcED2Ev
FN:99,_ZN9__gnu_cxx13new_allocatorIiE8allocateEmPKv
FN:99,_ZN9__gnu_cxx13new_allocatorISt6vectorIiSaIiEEE8allocateEmPKv
FN:109,_ZN9__gnu_cxx13new_allocatorISt6vectorIiSaIiEEE10deallocateEPS3_m
FN:109,_ZN9__gnu_cxx13new_allocatorIiE10deallocateEPim
FN:113,_ZNK9__gnu_cxx13new_allocatorIiE8max_sizeEv
FN:113,_ZNK9__gnu_cxx13new_allocatorISt6vectorIiSaIiEEE8max_sizeEv
FNDA:0,_ZN9__gnu_cxx13new_allocatorISt6vectorIiSaIiEEEC2Ev
FNDA:0,_ZN9__gnu_cxx13new_allocatorIiEC2Ev
FNDA:0,_ZN9__gnu_cxx13new_allocatorIcEC2Ev
FNDA:0,_ZN9__gnu_cxx13new_allocatorIiEC2ERKS1_
FNDA:0,_ZN9__gnu_cxx13new_allocatorISt6vectorIiSaIiEEEC2ERKS4_
FNDA:0,_ZN9__gnu_cxx13new_allocatorIcEC2ERKS1_
FNDA:0,_ZN9__gnu_cxx13new_allocatorISt6vectorIiSaIiEEED2Ev
FNDA:0,_ZN9__gnu_cxx13new_allocatorIiED2Ev
FNDA:0,_ZN9__gnu_cxx13new_allocatorIcED2Ev
FNDA:0,_ZN9__gnu_cxx13new_allocatorISt6vectorIiSaIiEEE8allocateEmPKv
FNDA:0,_ZN9__gnu_cxx13new_allocatorIiE8allocateEmPKv
FNDA:0,_ZN9__gnu_cxx13new_allocatorISt6vectorIiSaIiEEE10deallocateEPS3_m
FNDA:0,_ZN9__gnu_cxx13new_allocatorIiE10deallocateEPim
FNDA:0,_ZNK9__gnu_cxx13new_allocatorISt6vectorIiSaIiEEE8max_sizeEv
FNDA:0,_ZNK9__gnu_cxx13new_allocatorIiE8max_sizeEv
FNF:15
FNH:0
DA:79,0
DA:81,0
DA:86,0
DA:99,0
DA:101,0
DA:102,0
DA:104,0
DA:109,0
DA:110,0
DA:113,0
DA:114,0
LF:11
LH:0
end_of_record
SF:/usr/include/c++/4.8/ext/type_traits.h
FN:150,_ZN9__gnu_cxx17__is_null_pointerIcEEbPT_
FNDA:0,_ZN9__gnu_cxx17__is_null_pointerIcEEbPT_
FNF:1
FNH:0
DA:150,0
DA:151,0
LF:2
LH:0
end_of_record
SF:/usr/include/c++/4.8/initializer_list
FN:71,_ZNKSt16initializer_listIiE4sizeEv
FN:71,_ZNKSt16initializer_listISt6vectorIiSaIiEEE4sizeEv
FN:75,_ZNKSt16initializer_listIiE5beginEv
FN:75,_ZNKSt16initializer_listISt6vectorIiSaIiEEE5beginEv
FN:79,_ZNKSt16initializer_listISt6vectorIiSaIiEEE3endEv
FN:79,_ZNKSt16initializer_listIiE3endEv
FNDA:0,_ZNKSt16initializer_listISt6vectorIiSaIiEEE4sizeEv
FNDA:0,_ZNKSt16initializer_listIiE4sizeEv
FNDA:0,_ZNKSt16initializer_listISt6vectorIiSaIiEEE5beginEv
FNDA:0,_ZNKSt16initializer_listIiE5beginEv
FNDA:0,_ZNKSt16initializer_listISt6vectorIiSaIiEEE3endEv
FNDA:0,_ZNKSt16initializer_listIiE3endEv
FNF:6
FNH:0
DA:71,0
DA:75,0
DA:79,0
LF:3
LH:0
end_of_record
SF:/usr/include/c++/4.8/iostream
DA:74,2
LF:1
LH:1
end_of_record
SF:/usr/include/c++/4.8/new
FN:109,_ZnwmPv
FN:115,_ZdlPvS_
FNDA:0,_ZnwmPv
FNDA:0,_ZdlPvS_
FNF:2
FNH:0
DA:109,0
DA:110,0
DA:115,0
LF:3
LH:0
end_of_record
SF:/usr/include/c++/4.8/sstream
FN:64,_ZNSt15basic_stringbufIcSt11char_traitsIcESaIcEED0Ev
FN:64,_ZNSt15basic_stringbufIcSt11char_traitsIcESaIcEED2Ev
FNDA:0,_ZNSt15basic_stringbufIcSt11char_traitsIcESaIcEED0Ev
FNDA:0,_ZNSt15basic_stringbufIcSt11char_traitsIcESaIcEED2Ev
FNF:2
FNH:0
DA:64,0
LF:1
LH:0
end_of_record
SF:/usr/include/x86_64-linux-gnu/c++/4.8/bits/gthr-default.h
FN:247,_ZL18__gthread_active_pv
FNDA:0,_ZL18__gthread_active_pv
FNF:1
FNH:0
DA:247,0
DA:251,0
LF:2
LH:0
end_of_record
TN:
SF:/home/ruslan/Facultad/Algo1 2017/TPI2017/TPIalgo1/salaDeReuniones_TPI/src/lib/googletest-master/googletest/include/gtest/gtest-message.h
FN:85,_ZN7testing7MessageD2Ev
FNDA:0,_ZN7testing7MessageD2Ev
FNF:1
FNH:0
DA:85,0
LF:1
LH:0
end_of_record
SF:/home/ruslan/Facultad/Algo1 2017/TPI2017/TPIalgo1/salaDeReuniones_TPI/src/lib/googletest-master/googletest/include/gtest/gtest-printers.h
FN:222,_ZN16testing_internal26DefaultPrintNonContainerToIiEEvRKT_PSo
FN:275,_ZN7testing8internal19FormatForComparisonIiiE6FormatERKi
FN:349,_ZN7testing8internal33FormatForComparisonFailureMessageIiiEESsRKT_RKT0_
FN:442,_ZN7testing8internal14DefaultPrintToIiEEvNS0_15WrapPrinterTypeILNS0_18DefaultPrinterTypeE3EEERKT_PSo
FN:459,_ZN7testing8internal7PrintToIiEEvRKT_PSo
FN:714,_ZN7testing8internal16UniversalPrinterIiE5PrintERKiPSo
FN:799,_ZN7testing8internal21UniversalTersePrinterIiE5PrintERKiPSo
FN:868,_ZN7testing8internal14UniversalPrintIiEEvRKT_PSo
FN:996,_ZN7testing13PrintToStringIiEESsRKT_
FNDA:0,_ZN16testing_internal26DefaultPrintNonContainerToIiEEvRKT_PSo
FNDA:0,_ZN7testing8internal19FormatForComparisonIiiE6FormatERKi
FNDA:0,_ZN7testing8internal33FormatForComparisonFailureMessageIiiEESsRKT_RKT0_
FNDA:0,_ZN7testing8internal14DefaultPrintToIiEEvNS0_15WrapPrinterTypeILNS0_18DefaultPrinterTypeE3EEERKT_PSo
FNDA:0,_ZN7testing8internal7PrintToIiEEvRKT_PSo
FNDA:0,_ZN7testing8internal16UniversalPrinterIiE5PrintERKiPSo
FNDA:0,_ZN7testing8internal21UniversalTersePrinterIiE5PrintERKiPSo
FNDA:0,_ZN7testing8internal14UniversalPrintIiEEvRKT_PSo
FNDA:0,_ZN7testing13PrintToStringIiEESsRKT_
FNF:9
FNH:0
DA:222,0
DA:249,0
DA:250,0
DA:275,0
DA:276,0
DA:349,0
DA:351,0
DA:442,0
DA:444,0
DA:445,0
DA:459,0
DA:481,0
DA:493,0
DA:494,0
DA:714,0
DA:723,0
DA:724,0
DA:799,0
DA:800,0
DA:801,0
DA:868,0
DA:872,0
DA:873,0
DA:996,0
DA:997,0
DA:998,0
DA:999,0
LF:27
LH:0
end_of_record
SF:/home/ruslan/Facultad/Algo1 2017/TPI2017/TPIalgo1/salaDeReuniones_TPI/src/lib/googletest-master/googletest/include/gtest/gtest.h
FN:256,_ZN7testing15AssertionResultD2Ev
FN:288,_ZNK7testing15AssertionResultcvbEv
FN:297,_ZNK7testing15AssertionResult7messageEv
FN:302,_ZNK7testing15AssertionResult15failure_messageEv
FN:389,_ZN7testing4Test13SetUpTestCaseEv
FN:397,_ZN7testing4Test16TearDownTestCaseEv
FN:474,_ZN7testing4Test5SetupEv
FN:1375,_ZN7testing8internal18CmpHelperEQFailureIiiEENS_15AssertionResultEPKcS4_RKT_RKT0_
FN:1387,_ZN7testing8internal11CmpHelperEQIiiEENS_15AssertionResultEPKcS4_RKT_RKT0_
FN:1417,_ZN7testing8internal8EqHelperILb0EE7CompareIiiEENS_15AssertionResultEPKcS6_RKT_RKT0_
FN:1448,_ZN7testing8internal8EqHelperILb1EE7CompareIiiEENS_15AssertionResultEPKcS6_RKT_RKT0_PNS0_8EnableIfIXntsrNS0_10is_pointerISA_EE5valueEE4typeE
FNDA:0,_ZN7testing15AssertionResultD2Ev
FNDA:0,_ZNK7testing15AssertionResultcvbEv
FNDA:0,_ZNK7testing15AssertionResult7messageEv
FNDA:0,_ZNK7testing15AssertionResult15failure_messageEv
FNDA:0,_ZN7testing4Test13SetUpTestCaseEv
FNDA:0,_ZN7testing4Test16TearDownTestCaseEv
FNDA:0,_ZN7testing4Test5SetupEv
FNDA:0,_ZN7testing8internal18CmpHelperEQFailureIiiEENS_15AssertionResultEPKcS4_RKT_RKT0_
FNDA:752,_ZN7testing8internal11CmpHelperEQIiiEENS_15AssertionResultEPKcS4_RKT_RKT0_
FNDA:744,_ZN7testing8internal8EqHelperILb0EE7CompareIiiEENS_15AssertionResultEPKcS6_RKT_RKT0_
FNDA:8,_ZN7testing8internal8EqHelperILb1EE7CompareIiiEENS_15AssertionResultEPKcS6_RKT_RKT0_PNS0_8EnableIfIXntsrNS0_10is_pointerISA_EE5valueEE4typeE
FNF:11
FNH:3
DA:256,0
DA:288,0
DA:297,0
DA:298,0
DA:302,0
DA:389,0
DA:397,0
DA:474,0
DA:1375,0
DA:1382,0
DA:1387,752
DA:1392,752
DA:1393,752
DA:1397,0
DA:1417,744
DA:1421,744
DA:1448,8
DA:1459,8
LF:18
LH:7
end_of_record
SF:/home/ruslan/Facultad/Algo1 2017/TPI2017/TPIalgo1/salaDeReuniones_TPI/src/lib/googletest-master/googletest/include/gtest/internal/gtest-internal.h
FN:466,_ZN7testing8internal15TestFactoryBaseD0Ev
FN:466,_ZN7testing8internal15TestFactoryBaseD2Ev
FN:473,_ZN7testing8internal15TestFactoryBaseC2Ev
FN:482,_ZN7testing8internal15TestFactoryImplI28elAcaparadorTEST_prueba_TestEC2Ev
FN:482,_ZN7testing8internal15TestFactoryImplI29elAcaparadorTEST_prueba2_TestED0Ev
FN:482,_ZN7testing8internal15TestFactoryImplI28elAcaparadorTEST_prueba_TestED2Ev
FN:482,_ZN7testing8internal15TestFactoryImplI29elAcaparadorTEST_prueba2_TestEC2Ev
FN:482,_ZN7testing8internal15TestFactoryImplI28elAcaparadorTEST_prueba_TestED0Ev
FN:482,_ZN7testing8internal15TestFactoryImplI29elAcaparadorTEST_prueba2_TestED2Ev
FN:484,_ZN7testing8internal15TestFactoryImplI29elAcaparadorTEST_prueba2_TestE10CreateTestEv
FN:484,_ZN7testing8internal15TestFactoryImplI28elAcaparadorTEST_prueba_TestE10CreateTestEv
FN:504,_ZN7testing8internal12CodeLocationD2Ev
FN:505,_ZN7testing8internal12CodeLocationC2ERKSsi
FNDA:0,_ZN7testing8internal15TestFactoryBaseD0Ev
FNDA:0,_ZN7testing8internal15TestFactoryBaseD2Ev
FNDA:0,_ZN7testing8internal15TestFactoryBaseC2Ev
FNDA:8,_ZN7testing8internal15TestFactoryImplI28elAcaparadorTEST_prueba_TestED0Ev
FNDA:8,_ZN7testing8internal15TestFactoryImplI28elAcaparadorTEST_prueba_TestED2Ev
FNDA:8,_ZN7testing8internal15TestFactoryImplI29elAcaparadorTEST_prueba2_TestED0Ev
FNDA:8,_ZN7testing8internal15TestFactoryImplI29elAcaparadorTEST_prueba2_TestED2Ev
FNDA:8,_ZN7testing8internal15TestFactoryImplI29elAcaparadorTEST_prueba2_TestEC2Ev
FNDA:8,_ZN7testing8internal15TestFactoryImplI28elAcaparadorTEST_prueba_TestEC2Ev
FNDA:8,_ZN7testing8internal15TestFactoryImplI28elAcaparadorTEST_prueba_TestE10CreateTestEv
FNDA:8,_ZN7testing8internal15TestFactoryImplI29elAcaparadorTEST_prueba2_TestE10CreateTestEv
FNDA:0,_ZN7testing8internal12CodeLocationD2Ev
FNDA:0,_ZN7testing8internal12CodeLocationC2ERKSsi
FNF:13
FNH:8
DA:466,0
DA:473,0
DA:482,48
DA:484,16
DA:504,0
DA:505,0
DA:506,0
LF:7
LH:2
end_of_record
SF:/home/ruslan/Facultad/Algo1 2017/TPI2017/TPIalgo1/salaDeReuniones_TPI/src/lib/googletest-master/googletest/include/gtest/internal/gtest-port.h
FN:1157,_ZN7testing8internal10scoped_ptrISsED2Ev
FN:1157,_ZN7testing8internal10scoped_ptrISt18basic_stringstreamIcSt11char_traitsIcESaIcEEED2Ev
FN:1160,_ZNK7testing8internal10scoped_ptrISsEptEv
FN:1161,_ZNK7testing8internal10scoped_ptrISsE3getEv
FN:1169,_ZN7testing8internal10scoped_ptrISt18basic_stringstreamIcSt11char_traitsIcESaIcEEE5resetEPS6_
FN:1169,_ZN7testing8internal10scoped_ptrISsE5resetEPSs
FNDA:0,_ZN7testing8internal10scoped_ptrISsED2Ev
FNDA:0,_ZN7testing8internal10scoped_ptrISt18basic_stringstreamIcSt11char_traitsIcESaIcEEED2Ev
FNDA:0,_ZNK7testing8internal10scoped_ptrISsEptEv
FNDA:0,_ZNK7testing8internal10scoped_ptrISsE3getEv
FNDA:0,_ZN7testing8internal10scoped_ptrISt18basic_stringstreamIcSt11char_traitsIcESaIcEEE5resetEPS6_
FNDA:0,_ZN7testing8internal10scoped_ptrISsE5resetEPSs
FNF:6
FNH:0
DA:1157,0
DA:1160,0
DA:1161,0
DA:1169,0
DA:1170,0
DA:1171,0
DA:1172,0
DA:1174,0
DA:1176,0
LF:9
LH:0
end_of_record
SF:/home/ruslan/Facultad/Algo1 2017/TPI2017/TPIalgo1/salaDeReuniones_TPI/src/tests/elAcaparadorTEST.cpp
FN:5,_ZN28elAcaparadorTEST_prueba_TestD0Ev
FN:5,_ZN28elAcaparadorTEST_prueba_TestC2Ev
FN:5,_ZN28elAcaparadorTEST_prueba_TestD2Ev
FN:5,_ZN28elAcaparadorTEST_prueba_Test8TestBodyEv
FN:5,_Z41__static_initialization_and_destruction_0ii
FN:17,_ZN29elAcaparadorTEST_prueba2_TestC2Ev
FN:17,_ZN29elAcaparadorTEST_prueba2_TestD2Ev
FN:17,_ZN29elAcaparadorTEST_prueba2_TestD0Ev
FN:17,_ZN29elAcaparadorTEST_prueba2_Test8TestBodyEv
FN:27,_GLOBAL__sub_I__ZN28elAcaparadorTEST_prueba_Test10test_info_E
FNDA:8,_ZN28elAcaparadorTEST_prueba_TestD0Ev
FNDA:8,_ZN28elAcaparadorTEST_prueba_TestD2Ev
FNDA:8,_ZN28elAcaparadorTEST_prueba_Test8TestBodyEv
FNDA:8,_ZN28elAcaparadorTEST_prueba_TestC2Ev
FNDA:8,_ZN29elAcaparadorTEST_prueba2_TestD0Ev
FNDA:8,_ZN29elAcaparadorTEST_prueba2_TestD2Ev
FNDA:8,_ZN29elAcaparadorTEST_prueba2_Test8TestBodyEv
FNDA:8,_ZN29elAcaparadorTEST_prueba2_TestC2Ev
FNDA:8,_GLOBAL__sub_I__ZN28elAcaparadorTEST_prueba_Test10test_info_E
FNDA:8,_Z41__static_initialization_and_destruction_0ii
FNF:10
FNH:10
DA:5,40
DA:11,8
DA:12,8
DA:13,8
DA:14,8
DA:15,8
DA:17,40
DA:23,8
DA:24,8
DA:25,8
DA:26,8
DA:27,32
LF:12
LH:12
end_of_record
SF:/usr/include/c++/4.8/bits/alloc_traits.h
FN:337,_ZNSt16allocator_traitsISaIiEE9_S_selectIKS0_EENSt9enable_ifIXntsrNS1_15__select_helperIT_EE5valueES6_E4typeERS6_
FN:337,_ZNSt16allocator_traitsISaISt6vectorIiSaIiEEEE9_S_selectIKS3_EENSt9enable_ifIXntsrNS4_15__select_helperIT_EE5valueES9_E4typeERS9_
FN:427,_ZNSt16allocator_traitsISaIiEE37select_on_container_copy_constructionERKS0_
FN:427,_ZNSt16allocator_traitsISaISt6vectorIiSaIiEEEE37select_on_container_copy_constructionERKS3_
FNDA:0,_ZNSt16allocator_traitsISaIiEE9_S_selectIKS0_EENSt9enable_ifIXntsrNS1_15__select_helperIT_EE5valueES6_E4typeERS6_
FNDA:0,_ZNSt16allocator_traitsISaISt6vectorIiSaIiEEEE9_S_selectIKS3_EENSt9enable_ifIXntsrNS4_15__select_helperIT_EE5valueES9_E4typeERS9_
FNDA:0,_ZNSt16allocator_traitsISaIiEE37select_on_container_copy_constructionERKS0_
FNDA:0,_ZNSt16allocator_traitsISaISt6vectorIiSaIiEEEE37select_on_container_copy_constructionERKS3_
FNF:4
FNH:0
DA:337,0
DA:338,0
DA:427,0
DA:428,0
LF:4
LH:0
end_of_record
SF:/usr/include/c++/4.8/bits/allocator.h
FN:113,_ZNSaISt6vectorIiSaIiEEEC2Ev
FN:113,_ZNSaIiEC2Ev
FN:115,_ZNSaISt6vectorIiSaIiEEEC2ERKS2_
FN:115,_ZNSaIiEC2ERKS_
FN:121,_ZNSaIiED2Ev
FN:121,_ZNSaISt6vectorIiSaIiEEED2Ev
FN:133,_ZSteqIcEbRKSaIT_ES3_
FNDA:0,_ZNSaISt6vectorIiSaIiEEEC2Ev
FNDA:0,_ZNSaIiEC2Ev
FNDA:0,_ZNSaIiEC2ERKS_
FNDA:0,_ZNSaISt6vectorIiSaIiEEEC2ERKS2_
FNDA:0,_ZNSaISt6vectorIiSaIiEEED2Ev
FNDA:0,_ZNSaIiED2Ev
FNDA:0,_ZSteqIcEbRKSaIT_ES3_
FNF:7
FNH:0
DA:113,0
DA:115,0
DA:116,0
DA:121,0
DA:133,0
DA:134,0
LF:6
LH:0
end_of_record
SF:/usr/include/c++/4.8/bits/basic_string.h
FN:272,_ZNSs12_Alloc_hiderD2Ev
FN:1721,_ZNSs16_S_construct_auxIPcEES0_T_S1_RKSaIcESt12__false_type
FN:1743,_ZNSs12_S_constructIPcEES0_T_S1_RKSaIcE
FNDA:0,_ZNSs12_Alloc_hiderD2Ev
FNDA:0,_ZNSs16_S_construct_auxIPcEES0_T_S1_RKSaIcESt12__false_type
FNDA:0,_ZNSs12_S_constructIPcEES0_T_S1_RKSaIcE
FNF:3
FNH:0
DA:272,0
DA:1721,0
DA:1725,0
DA:1743,0
DA:1746,0
LF:5
LH:0
end_of_record
SF:/usr/include/c++/4.8/bits/basic_string.tcc
FN:123,_ZNSs12_S_constructIPcEES0_T_S1_RKSaIcESt20forward_iterator_tag
FN:227,_ZNSsC2IPcEET_S1_RKSaIcE
FNDA:0,_ZNSs12_S_constructIPcEES0_T_S1_RKSaIcESt20forward_iterator_tag
FNDA:0,_ZNSsC2IPcEET_S1_RKSaIcE
FNF:2
FNH:0
DA:123,0
DA:128,0
DA:129,0
DA:132,0
DA:133,0
DA:136,0
DA:138,0
DA:140,0
DA:141,=====
DA:143,=====
DA:144,=====
DA:146,0
DA:147,0
DA:227,0
DA:229,0
DA:230,0
LF:16
LH:0
end_of_record
SF:/usr/include/c++/4.8/bits/char_traits.h
FN:242,_ZNSt11char_traitsIcE6assignERcRKc
FN:270,_ZNSt11char_traitsIcE4copyEPcPKcm
FNDA:0,_ZNSt11char_traitsIcE6assignERcRKc
FNDA:0,_ZNSt11char_traitsIcE4copyEPcPKcm
FNF:2
FNH:0
DA:242,0
DA:243,0
DA:270,0
DA:271,0
LF:4
LH:0
end_of_record
SF:/usr/include/c++/4.8/bits/ios_base.h
FN:123,_ZStorSt13_Ios_OpenmodeS_
FNDA:0,_ZStorSt13_Ios_OpenmodeS_
FNF:1
FNH:0
DA:123,0
DA:124,0
LF:2
LH:0
end_of_record
SF:/usr/include/c++/4.8/bits/move.h
FN:47,_ZSt11__addressofISt6vectorIiSaIiEEEPT_RS3_
FN:76,_ZSt7forwardIRKSt6vectorIiSaIiEEEOT_RNSt16remove_referenceIS5_E4typeE
FNDA:0,_ZSt11__addressofISt6vectorIiSaIiEEEPT_RS3_
FNDA:0,_ZSt7forwardIRKSt6vectorIiSaIiEEEOT_RNSt16remove_referenceIS5_E4typeE
FNF:2
FNH:0
DA:47,0
DA:50,0
DA:76,0
DA:77,0
LF:4
LH:0
end_of_record
SF:/usr/include/c++/4.8/bits/stl_algobase.h
FN:277,_ZSt12__niter_baseIN9__gnu_cxx17__normal_iteratorIPKiSt6vectorIiSaIiEEEEENSt11_Niter_baseIT_E13iterator_typeES9_
FN:277,_ZSt12__niter_baseIPiENSt11_Niter_baseIT_E13iterator_typeES2_
FN:277,_ZSt12__niter_baseIPKiENSt11_Niter_baseIT_E13iterator_typeES3_
FN:288,_ZSt12__miter_baseIPKiENSt11_Miter_baseIT_E13iterator_typeES3_
FN:288,_ZSt12__miter_baseIN9__gnu_cxx17__normal_iteratorIPKiSt6vectorIiSaIiEEEEENSt11_Miter_baseIT_E13iterator_typeES9_
FN:368,_ZNSt11__copy_moveILb0ELb1ESt26random_access_iterator_tagE8__copy_mIiEEPT_PKS3_S6_S4_
FN:379,_ZSt13__copy_move_aILb0EPKiPiET1_T0_S4_S3_
FN:424,_ZSt14__copy_move_a2ILb0EN9__gnu_cxx17__normal_iteratorIPKiSt6vectorIiSaIiEEEEPiET1_T0_SA_S9_
FN:424,_ZSt14__copy_move_a2ILb0EPKiPiET1_T0_S4_S3_
FN:450,_ZSt4copyIPKiPiET0_T_S4_S3_
FN:450,_ZSt4copyIN9__gnu_cxx17__normal_iteratorIPKiSt6vectorIiSaIiEEEEPiET0_T_SA_S9_
FNDA:0,_ZSt12__niter_baseIN9__gnu_cxx17__normal_iteratorIPKiSt6vectorIiSaIiEEEEENSt11_Niter_baseIT_E13iterator_typeES9_
FNDA:0,_ZSt12__niter_baseIPiENSt11_Niter_baseIT_E13iterator_typeES2_
FNDA:0,_ZSt12__niter_baseIPKiENSt11_Niter_baseIT_E13iterator_typeES3_
FNDA:0,_ZSt12__miter_baseIN9__gnu_cxx17__normal_iteratorIPKiSt6vectorIiSaIiEEEEENSt11_Miter_baseIT_E13iterator_typeES9_
FNDA:0,_ZSt12__miter_baseIPKiENSt11_Miter_baseIT_E13iterator_typeES3_
FNDA:0,_ZNSt11__copy_moveILb0ELb1ESt26random_access_iterator_tagE8__copy_mIiEEPT_PKS3_S6_S4_
FNDA:0,_ZSt13__copy_move_aILb0EPKiPiET1_T0_S4_S3_
FNDA:0,_ZSt14__copy_move_a2ILb0EN9__gnu_cxx17__normal_iteratorIPKiSt6vectorIiSaIiEEEEPiET1_T0_SA_S9_
FNDA:0,_ZSt14__copy_move_a2ILb0EPKiPiET1_T0_S4_S3_
FNDA:0,_ZSt4copyIN9__gnu_cxx17__normal_iteratorIPKiSt6vectorIiSaIiEEEEPiET0_T_SA_S9_
FNDA:0,_ZSt4copyIPKiPiET0_T_S4_S3_
FNF:11
FNH:0
DA:277,0
DA:278,0
DA:288,0
DA:289,0
DA:368,0
DA:370,0
DA:371,0
DA:372,0
DA:373,0
DA:379,0
DA:387,0
DA:390,0
DA:424,0
DA:428,0
DA:450,0
DA:460,0
LF:16
LH:0
end_of_record
SF:/usr/include/c++/4.8/bits/stl_construct.h
FN:74,_ZSt10_ConstructISt6vectorIiSaIiEEIRKS2_EEvPT_DpOT0_
FN:92,_ZSt8_DestroyISt6vectorIiSaIiEEEvPT_
FN:100,_ZNSt12_Destroy_auxILb0EE9__destroyIPSt6vectorIiSaIiEEEEvT_S6_
FN:112,_ZNSt12_Destroy_auxILb1EE9__destroyIPiEEvT_S3_
FN:122,_ZSt8_DestroyIPSt6vectorIiSaIiEEEvT_S4_
FN:122,_ZSt8_DestroyIPiEvT_S1_
FN:148,_ZSt8_DestroyIPSt6vectorIiSaIiEES2_EvT_S4_RSaIT0_E
FN:148,_ZSt8_DestroyIPiiEvT_S1_RSaIT0_E
FNDA:0,_ZSt10_ConstructISt6vectorIiSaIiEEIRKS2_EEvPT_DpOT0_
FNDA:0,_ZSt8_DestroyISt6vectorIiSaIiEEEvPT_
FNDA:0,_ZNSt12_Destroy_auxILb0EE9__destroyIPSt6vectorIiSaIiEEEEvT_S6_
FNDA:0,_ZNSt12_Destroy_auxILb1EE9__destroyIPiEEvT_S3_
FNDA:0,_ZSt8_DestroyIPSt6vectorIiSaIiEEEvT_S4_
FNDA:0,_ZSt8_DestroyIPiEvT_S1_
FNDA:0,_ZSt8_DestroyIPSt6vectorIiSaIiEES2_EvT_S4_RSaIT0_E
FNDA:0,_ZSt8_DestroyIPiiEvT_S1_RSaIT0_E
FNF:8
FNH:0
DA:74,0
DA:75,0
DA:92,0
DA:93,0
DA:100,0
DA:102,0
DA:103,0
DA:104,0
DA:112,0
DA:122,0
DA:126,0
DA:128,0
DA:148,0
DA:151,0
DA:152,0
LF:15
LH:0
end_of_record
SF:/usr/include/c++/4.8/bits/stl_iterator.h
FN:726,_ZN9__gnu_cxx17__normal_iteratorIPKiSt6vectorIiSaIiEEEC2ERKS2_
FN:726,_ZN9__gnu_cxx17__normal_iteratorIPKSt6vectorIiSaIiEES1_IS3_SaIS3_EEEC2ERKS5_
FN:738,_ZNK9__gnu_cxx17__normal_iteratorIPKSt6vectorIiSaIiEES1_IS3_SaIS3_EEEdeEv
FN:746,_ZN9__gnu_cxx17__normal_iteratorIPKSt6vectorIiSaIiEES1_IS3_SaIS3_EEEppEv
FN:790,_ZNK9__gnu_cxx17__normal_iteratorIPKiSt6vectorIiSaIiEEE4baseEv
FN:790,_ZNK9__gnu_cxx17__normal_iteratorIPKSt6vectorIiSaIiEES1_IS3_SaIS3_EEE4baseEv
FN:823,_ZN9__gnu_cxxneIPKSt6vectorIiSaIiEES1_IS3_SaIS3_EEEEbRKNS_17__normal_iteratorIT_T0_EESD_
FNDA:0,_ZN9__gnu_cxx17__normal_iteratorIPKiSt6vectorIiSaIiEEEC2ERKS2_
FNDA:0,_ZN9__gnu_cxx17__normal_iteratorIPKSt6vectorIiSaIiEES1_IS3_SaIS3_EEEC2ERKS5_
FNDA:0,_ZNK9__gnu_cxx17__normal_iteratorIPKSt6vectorIiSaIiEES1_IS3_SaIS3_EEEdeEv
FNDA:0,_ZN9__gnu_cxx17__normal_iteratorIPKSt6vectorIiSaIiEES1_IS3_SaIS3_EEEppEv
FNDA:0,_ZNK9__gnu_cxx17__normal_iteratorIPKiSt6vectorIiSaIiEEE4baseEv
FNDA:0,_ZNK9__gnu_cxx17__normal_iteratorIPKSt6vectorIiSaIiEES1_IS3_SaIS3_EEE4baseEv
FNDA:0,_ZN9__gnu_cxxneIPKSt6vectorIiSaIiEES1_IS3_SaIS3_EEEEbRKNS_17__normal_iteratorIT_T0_EESD_
FNF:7
FNH:0
DA:726,0
DA:738,0
DA:739,0
DA:746,0
DA:748,0
DA:749,0
DA:790,0
DA:791,0
DA:823,0
DA:825,0
LF:10
LH:0
end_of_record
SF:/usr/include/c++/4.8/bits/stl_iterator_base_funcs.h
FN:90,_ZSt10__distanceIPcENSt15iterator_traitsIT_E15difference_typeES2_S2_St26random_access_iterator_tag
FN:90,_ZSt10__distanceIPKSt6vectorIiSaIiEEENSt15iterator_traitsIT_E15difference_typeES6_S6_St26random_access_iterator_tag
FN:90,_ZSt10__distanceIPKiENSt15iterator_traitsIT_E15difference_typeES3_S3_St26random_access_iterator_tag
FN:114,_ZSt8distanceIPKiENSt15iterator_traitsIT_E15difference_typeES3_S3_
FN:114,_ZSt8distanceIPKSt6vectorIiSaIiEEENSt15iterator_traitsIT_E15difference_typeES6_S6_
FN:114,_ZSt8distanceIPcENSt15iterator_traitsIT_E15difference_typeES2_S2_
FNDA:0,_ZSt10__distanceIPcENSt15iterator_traitsIT_E15difference_typeES2_S2_St26random_access_iterator_tag
FNDA:80,_ZSt10__distanceIPKSt6vectorIiSaIiEEENSt15iterator_traitsIT_E15difference_typeES6_S6_St26random_access_iterator_tag
FNDA:0,_ZSt10__distanceIPKiENSt15iterator_traitsIT_E15difference_typeES3_S3_St26random_access_iterator_tag
FNDA:0,_ZSt8distanceIPcENSt15iterator_traitsIT_E15difference_typeES2_S2_
FNDA:80,_ZSt8distanceIPKSt6vectorIiSaIiEEENSt15iterator_traitsIT_E15difference_typeES6_S6_
FNDA:0,_ZSt8distanceIPKiENSt15iterator_traitsIT_E15difference_typeES3_S3_
FNF:6
FNH:2
DA:90,80
DA:96,80
DA:114,80
DA:118,80
LF:4
LH:4
end_of_record
SF:/usr/include/c++/4.8/bits/stl_iterator_base_types.h
FN:201,_ZSt19__iterator_categoryIPcENSt15iterator_traitsIT_E17iterator_categoryERKS2_
FN:201,_ZSt19__iterator_categoryIPKiENSt15iterator_traitsIT_E17iterator_categoryERKS3_
FN:201,_ZSt19__iterator_categoryIPKSt6vectorIiSaIiEEENSt15iterator_traitsIT_E17iterator_categoryERKS6_
FN:212,_ZNSt10_Iter_baseIN9__gnu_cxx17__normal_iteratorIPKiSt6vectorIiSaIiEEEELb0EE7_S_baseES7_
FN:212,_ZNSt10_Iter_baseIPiLb0EE7_S_baseES0_
FN:212,_ZNSt10_Iter_baseIPKiLb0EE7_S_baseES1_
FN:220,_ZNSt10_Iter_baseIN9__gnu_cxx17__normal_iteratorIPKiSt6vectorIiSaIiEEEELb1EE7_S_baseES7_
FNDA:0,_ZSt19__iterator_categoryIPcENSt15iterator_traitsIT_E17iterator_categoryERKS2_
FNDA:80,_ZSt19__iterator_categoryIPKSt6vectorIiSaIiEEENSt15iterator_traitsIT_E17iterator_categoryERKS6_
FNDA:0,_ZSt19__iterator_categoryIPKiENSt15iterator_traitsIT_E17iterator_categoryERKS3_
FNDA:0,_ZNSt10_Iter_baseIN9__gnu_cxx17__normal_iteratorIPKiSt6vectorIiSaIiEEEELb0EE7_S_baseES7_
FNDA:0,_ZNSt10_Iter_baseIPiLb0EE7_S_baseES0_
FNDA:0,_ZNSt10_Iter_baseIPKiLb0EE7_S_baseES1_
FNDA:0,_ZNSt10_Iter_baseIN9__gnu_cxx17__normal_iteratorIPKiSt6vectorIiSaIiEEEELb1EE7_S_baseES7_
FNF:7
FNH:1
DA:201,80
DA:202,80
DA:212,0
DA:213,0
DA:220,0
DA:221,0
LF:6
LH:2
end_of_record
SF:/usr/include/c++/4.8/bits/stl_uninitialized.h
FN:68,_ZNSt20__uninitialized_copyILb0EE13__uninit_copyIN9__gnu_cxx17__normal_iteratorIPKSt6vectorIiSaIiEES4_IS6_SaIS6_EEEEPS6_EET0_T_SE_SD_
FN:68,_ZNSt20__uninitialized_copyILb0EE13__uninit_copyIPKSt6vectorIiSaIiEEPS4_EET0_T_S9_S8_
FN:91,_ZNSt20__uninitialized_copyILb1EE13__uninit_copyIN9__gnu_cxx17__normal_iteratorIPKiSt6vectorIiSaIiEEEEPiEET0_T_SC_SB_
FN:91,_ZNSt20__uninitialized_copyILb1EE13__uninit_copyIPKiPiEET0_T_S6_S5_
FN:107,_ZSt18uninitialized_copyIPKiPiET0_T_S4_S3_
FN:107,_ZSt18uninitialized_copyIN9__gnu_cxx17__normal_iteratorIPKSt6vectorIiSaIiEES2_IS4_SaIS4_EEEEPS4_ET0_T_SC_SB_
FN:107,_ZSt18uninitialized_copyIN9__gnu_cxx17__normal_iteratorIPKiSt6vectorIiSaIiEEEEPiET0_T_SA_S9_
FN:107,_ZSt18uninitialized_copyIPKSt6vectorIiSaIiEEPS2_ET0_T_S7_S6_
FN:256,_ZSt22__uninitialized_copy_aIN9__gnu_cxx17__normal_iteratorIPKiSt6vectorIiSaIiEEEEPiiET0_T_SA_S9_RSaIT1_E
FN:256,_ZSt22__uninitialized_copy_aIN9__gnu_cxx17__normal_iteratorIPKSt6vectorIiSaIiEES2_IS4_SaIS4_EEEEPS4_S4_ET0_T_SC_SB_RSaIT1_E
FN:256,_ZSt22__uninitialized_copy_aIPKiPiiET0_T_S4_S3_RSaIT1_E
FN:256,_ZSt22__uninitialized_copy_aIPKSt6vectorIiSaIiEEPS2_S2_ET0_T_S7_S6_RSaIT1_E
FNDA:80,_ZNSt20__uninitialized_copyILb0EE13__uninit_copyIPKSt6vectorIiSaIiEEPS4_EET0_T_S9_S8_
FNDA:0,_ZNSt20__uninitialized_copyILb0EE13__uninit_copyIN9__gnu_cxx17__normal_iteratorIPKSt6vectorIiSaIiEES4_IS6_SaIS6_EEEEPS6_EET0_T_SE_SD_
FNDA:0,_ZNSt20__uninitialized_copyILb1EE13__uninit_copyIN9__gnu_cxx17__normal_iteratorIPKiSt6vectorIiSaIiEEEEPiEET0_T_SC_SB_
FNDA:0,_ZNSt20__uninitialized_copyILb1EE13__uninit_copyIPKiPiEET0_T_S6_S5_
FNDA:0,_ZSt18uninitialized_copyIN9__gnu_cxx17__normal_iteratorIPKiSt6vectorIiSaIiEEEEPiET0_T_SA_S9_
FNDA:80,_ZSt18uninitialized_copyIPKSt6vectorIiSaIiEEPS2_ET0_T_S7_S6_
FNDA:0,_ZSt18uninitialized_copyIPKiPiET0_T_S4_S3_
FNDA:0,_ZSt18uninitialized_copyIN9__gnu_cxx17__normal_iteratorIPKSt6vectorIiSaIiEES2_IS4_SaIS4_EEEEPS4_ET0_T_SC_SB_
FNDA:0,_ZSt22__uninitialized_copy_aIN9__gnu_cxx17__normal_iteratorIPKiSt6vectorIiSaIiEEEEPiiET0_T_SA_S9_RSaIT1_E
FNDA:80,_ZSt22__uninitialized_copy_aIPKSt6vectorIiSaIiEEPS2_S2_ET0_T_S7_S6_RSaIT1_E
FNDA:0,_ZSt22__uninitialized_copy_aIPKiPiiET0_T_S4_S3_RSaIT1_E
FNDA:0,_ZSt22__uninitialized_copy_aIN9__gnu_cxx17__normal_iteratorIPKSt6vectorIiSaIiEES2_IS4_SaIS4_EEEEPS4_S4_ET0_T_SC_SB_RSaIT1_E
FNF:12
FNH:3
DA:68,80
DA:71,80
DA:74,288
DA:75,208
DA:76,80
DA:78,=====
DA:80,=====
DA:81,=====
DA:91,0
DA:93,0
DA:107,80
DA:117,80
DA:256,80
DA:258,80
LF:14
LH:9
end_of_record
SF:/usr/include/c++/4.8/bits/stl_vector.h
FN:79,_ZNSt12_Vector_baseISt6vectorIiSaIiEESaIS2_EE12_Vector_implD2Ev
FN:79,_ZNSt12_Vector_baseIiSaIiEE12_Vector_implD2Ev
FN:90,_ZNSt12_Vector_baseIiSaIiEE12_Vector_implC2ERKS0_
FN:90,_ZNSt12_Vector_baseISt6vectorIiSaIiEESaIS2_EE12_Vector_implC2ERKS3_
FN:113,_ZNSt12_Vector_baseISt6vectorIiSaIiEESaIS2_EE19_M_get_Tp_allocatorEv
FN:113,_ZNSt12_Vector_baseIiSaIiEE19_M_get_Tp_allocatorEv
FN:117,_ZNKSt12_Vector_baseIiSaIiEE19_M_get_Tp_allocatorEv
FN:117,_ZNKSt12_Vector_baseISt6vectorIiSaIiEESaIS2_EE19_M_get_Tp_allocatorEv
FN:127,_ZNSt12_Vector_baseIiSaIiEEC2ERKS0_
FN:127,_ZNSt12_Vector_baseISt6vectorIiSaIiEESaIS2_EEC2ERKS3_
FN:134,_ZNSt12_Vector_baseISt6vectorIiSaIiEESaIS2_EEC2EmRKS3_
FN:134,_ZNSt12_Vector_baseIiSaIiEEC2EmRKS0_
FN:159,_ZNSt12_Vector_baseISt6vectorIiSaIiEESaIS2_EED2Ev
FN:159,_ZNSt12_Vector_baseIiSaIiEED2Ev
FN:167,_ZNSt12_Vector_baseISt6vectorIiSaIiEESaIS2_EE11_M_allocateEm
FN:167,_ZNSt12_Vector_baseIiSaIiEE11_M_allocateEm
FN:171,_ZNSt12_Vector_baseISt6vectorIiSaIiEESaIS2_EE13_M_deallocateEPS2_m
FN:171,_ZNSt12_Vector_baseIiSaIiEE13_M_deallocateEPim
FN:179,_ZNSt12_Vector_baseIiSaIiEE17_M_create_storageEm
FN:179,_ZNSt12_Vector_baseISt6vectorIiSaIiEESaIS2_EE17_M_create_storageEm
FN:310,_ZNSt6vectorIS_IiSaIiEESaIS1_EEC2ERKS3_
FN:310,_ZNSt6vectorIiSaIiEEC2ERKS1_
FN:364,_ZNSt6vectorIiSaIiEEC2ESt16initializer_listIiERKS0_
FN:364,_ZNSt6vectorIS_IiSaIiEESaIS1_EEC2ESt16initializer_listIS1_ERKS2_
FN:414,_ZNSt6vectorIS_IiSaIiEESaIS1_EED2Ev
FN:414,_ZNSt6vectorIiSaIiEED2Ev
FN:547,_ZNKSt6vectorIS_IiSaIiEESaIS1_EE5beginEv
FN:547,_ZNKSt6vectorIiSaIiEE5beginEv
FN:565,_ZNKSt6vectorIS_IiSaIiEESaIS1_EE3endEv
FN:565,_ZNKSt6vectorIiSaIiEE3endEv
FN:645,_ZNKSt6vectorIS_IiSaIiEESaIS1_EE4sizeEv
FN:645,_ZNKSt6vectorIiSaIiEE4sizeEv
FN:1197,_ZNSt6vectorIS_IiSaIiEESaIS1_EE19_M_range_initializeIPKS1_EEvT_S7_St20forward_iterator_tag
FN:1197,_ZNSt6vectorIiSaIiEE19_M_range_initializeIPKiEEvT_S5_St20forward_iterator_tag
FNDA:0,_ZNSt12_Vector_baseISt6vectorIiSaIiEESaIS2_EE12_Vector_implD2Ev
FNDA:0,_ZNSt12_Vector_baseIiSaIiEE12_Vector_implD2Ev
FNDA:0,_ZNSt12_Vector_baseISt6vectorIiSaIiEESaIS2_EE12_Vector_implC2ERKS3_
FNDA:0,_ZNSt12_Vector_baseIiSaIiEE12_Vector_implC2ERKS0_
FNDA:0,_ZNSt12_Vector_baseISt6vectorIiSaIiEESaIS2_EE19_M_get_Tp_allocatorEv
FNDA:0,_ZNSt12_Vector_baseIiSaIiEE19_M_get_Tp_allocatorEv
FNDA:0,_ZNKSt12_Vector_baseIiSaIiEE19_M_get_Tp_allocatorEv
FNDA:0,_ZNKSt12_Vector_baseISt6vectorIiSaIiEESaIS2_EE19_M_get_Tp_allocatorEv
FNDA:80,_ZNSt12_Vector_baseISt6vectorIiSaIiEESaIS2_EEC2ERKS3_
FNDA:0,_ZNSt12_Vector_baseIiSaIiEEC2ERKS0_
FNDA:0,_ZNSt12_Vector_baseIiSaIiEEC2EmRKS0_
FNDA:0,_ZNSt12_Vector_baseISt6vectorIiSaIiEESaIS2_EEC2EmRKS3_
FNDA:0,_ZNSt12_Vector_baseISt6vectorIiSaIiEESaIS2_EED2Ev
FNDA:0,_ZNSt12_Vector_baseIiSaIiEED2Ev
FNDA:0,_ZNSt12_Vector_baseISt6vectorIiSaIiEESaIS2_EE11_M_allocateEm
FNDA:0,_ZNSt12_Vector_baseIiSaIiEE11_M_allocateEm
FNDA:0,_ZNSt12_Vector_baseISt6vectorIiSaIiEESaIS2_EE13_M_deallocateEPS2_m
FNDA:0,_ZNSt12_Vector_baseIiSaIiEE13_M_deallocateEPim
FNDA:0,_ZNSt12_Vector_baseIiSaIiEE17_M_create_storageEm
FNDA:0,_ZNSt12_Vector_baseISt6vectorIiSaIiEESaIS2_EE17_M_create_storageEm
FNDA:0,_ZNSt6vectorIiSaIiEEC2ERKS1_
FNDA:0,_ZNSt6vectorIS_IiSaIiEESaIS1_EEC2ERKS3_
FNDA:80,_ZNSt6vectorIS_IiSaIiEESaIS1_EEC2ESt16initializer_listIS1_ERKS2_
FNDA:0,_ZNSt6vectorIiSaIiEEC2ESt16initializer_listIiERKS0_
FNDA:0,_ZNSt6vectorIS_IiSaIiEESaIS1_EED2Ev
FNDA:0,_ZNSt6vectorIiSaIiEED2Ev
FNDA:0,_ZNKSt6vectorIiSaIiEE5beginEv
FNDA:0,_ZNKSt6vectorIS_IiSaIiEESaIS1_EE5beginEv
FNDA:0,_ZNKSt6vectorIiSaIiEE3endEv
FNDA:0,_ZNKSt6vectorIS_IiSaIiEESaIS1_EE3endEv
FNDA:0,_ZNKSt6vectorIiSaIiEE4sizeEv
FNDA:0,_ZNKSt6vectorIS_IiSaIiEESaIS1_EE4sizeEv
FNDA:80,_ZNSt6vectorIS_IiSaIiEESaIS1_EE19_M_range_initializeIPKS1_EEvT_S7_St20forward_iterator_tag
FNDA:0,_ZNSt6vectorIiSaIiEE19_M_range_initializeIPKiEEvT_S5_St20forward_iterator_tag
FNF:34
FNH:3
DA:79,0
DA:90,0
DA:91,0
DA:92,0
DA:113,0
DA:114,0
DA:117,0
DA:118,0
DA:127,80
DA:128,80
DA:134,0
DA:135,0
DA:136,0
DA:159,0
DA:160,0
DA:161,0
DA:167,0
DA:168,0
DA:171,0
DA:173,0
DA:174,0
DA:175,0
DA:179,0
DA:181,0
DA:182,0
DA:183,0
DA:184,0
DA:310,0
DA:312,0
DA:313,0
DA:316,0
DA:317,0
DA:364,80
DA:366,80
DA:368,80
DA:369,160
DA:370,80
DA:414,0
DA:415,0
DA:416,0
DA:547,0
DA:548,0
DA:565,0
DA:566,0
DA:645,0
DA:646,0
DA:1197,80
DA:1200,80
DA:1201,80
DA:1202,80
DA:1203,80
DA:1206,80
DA:1207,80
LF:53
LH:14
end_of_record
SF:/usr/include/c++/4.8/ext/alloc_traits.h
FN:166,_ZN9__gnu_cxx14__alloc_traitsISaIiEE17_S_select_on_copyERKS1_
FN:166,_ZN9__gnu_cxx14__alloc_traitsISaISt6vectorIiSaIiEEEE17_S_select_on_copyERKS4_
FNDA:0,_ZN9__gnu_cxx14__alloc_traitsISaIiEE17_S_select_on_copyERKS1_
FNDA:0,_ZN9__gnu_cxx14__alloc_traitsISaISt6vectorIiSaIiEEEE17_S_select_on_copyERKS4_
FNF:2
FNH:0
DA:166,0
DA:167,0
LF:2
LH:0
end_of_record
SF:/usr/include/c++/4.8/ext/atomicity.h
FN:48,_ZN9__gnu_cxxL18__exchange_and_addEPVii
FN:65,_ZN9__gnu_cxxL25__exchange_and_add_singleEPii
FN:78,_ZN9__gnu_cxxL27__exchange_and_add_dispatchEPii
FNDA:0,_ZN9__gnu_cxxL18__exchange_and_addEPVii
FNDA:0,_ZN9__gnu_cxxL25__exchange_and_add_singleEPii
FNDA:0,_ZN9__gnu_cxxL27__exchange_and_add_dispatchEPii
FNF:3
FNH:0
DA:48,0
DA:49,0
DA:65,0
DA:67,0
DA:68,0
DA:69,0
DA:78,0
DA:81,0
DA:82,0
DA:84,0
LF:10
LH:0
end_of_record
SF:/usr/include/c++/4.8/ext/new_allocator.h
FN:79,_ZN9__gnu_cxx13new_allocatorIcEC2Ev
FN:79,_ZN9__gnu_cxx13new_allocatorISt6vectorIiSaIiEEEC2Ev
FN:79,_ZN9__gnu_cxx13new_allocatorIiEC2Ev
FN:81,_ZN9__gnu_cxx13new_allocatorISt6vectorIiSaIiEEEC2ERKS4_
FN:81,_ZN9__gnu_cxx13new_allocatorIiEC2ERKS1_
FN:81,_ZN9__gnu_cxx13new_allocatorIcEC2ERKS1_
FN:86,_ZN9__gnu_cxx13new_allocatorIiED2Ev
FN:86,_ZN9__gnu_cxx13new_allocatorISt6vectorIiSaIiEEED2Ev
FN:86,_ZN9__gnu_cxx13new_allocatorIcED2Ev
FN:99,_ZN9__gnu_cxx13new_allocatorISt6vectorIiSaIiEEE8allocateEmPKv
FN:99,_ZN9__gnu_cxx13new_allocatorIiE8allocateEmPKv
FN:109,_ZN9__gnu_cxx13new_allocatorISt6vectorIiSaIiEEE10deallocateEPS3_m
FN:109,_ZN9__gnu_cxx13new_allocatorIiE10deallocateEPim
FN:113,_ZNK9__gnu_cxx13new_allocatorIiE8max_sizeEv
FN:113,_ZNK9__gnu_cxx13new_allocatorISt6vectorIiSaIiEEE8max_sizeEv
FNDA:0,_ZN9__gnu_cxx13new_allocatorISt6vectorIiSaIiEEEC2Ev
FNDA:0,_ZN9__gnu_cxx13new_allocatorIiEC2Ev
FNDA:0,_ZN9__gnu_cxx13new_allocatorIcEC2Ev
FNDA:0,_ZN9__gnu_cxx13new_allocatorIiEC2ERKS1_
FNDA:0,_ZN9__gnu_cxx13new_allocatorISt6vectorIiSaIiEEEC2ERKS4_
FNDA:0,_ZN9__gnu_cxx13new_allocatorIcEC2ERKS1_
FNDA:0,_ZN9__gnu_cxx13new_allocatorISt6vectorIiSaIiEEED2Ev
FNDA:0,_ZN9__gnu_cxx13new_allocatorIiED2Ev
FNDA:0,_ZN9__gnu_cxx13new_allocatorIcED2Ev
FNDA:0,_ZN9__gnu_cxx13new_allocatorISt6vectorIiSaIiEEE8allocateEmPKv
FNDA:0,_ZN9__gnu_cxx13new_allocatorIiE8allocateEmPKv
FNDA:0,_ZN9__gnu_cxx13new_allocatorISt6vectorIiSaIiEEE10deallocateEPS3_m
FNDA:0,_ZN9__gnu_cxx13new_allocatorIiE10deallocateEPim
FNDA:0,_ZNK9__gnu_cxx13new_allocatorISt6vectorIiSaIiEEE8max_sizeEv
FNDA:0,_ZNK9__gnu_cxx13new_allocatorIiE8max_sizeEv
FNF:15
FNH:0
DA:79,0
DA:81,0
DA:86,0
DA:99,0
DA:101,0
DA:102,0
DA:104,0
DA:109,0
DA:110,0
DA:113,0
DA:114,0
LF:11
LH:0
end_of_record
SF:/usr/include/c++/4.8/ext/type_traits.h
FN:150,_ZN9__gnu_cxx17__is_null_pointerIcEEbPT_
FNDA:0,_ZN9__gnu_cxx17__is_null_pointerIcEEbPT_
FNF:1
FNH:0
DA:150,0
DA:151,0
LF:2
LH:0
end_of_record
SF:/usr/include/c++/4.8/initializer_list
FN:71,_ZNKSt16initializer_listIiE4sizeEv
FN:71,_ZNKSt16initializer_listISt6vectorIiSaIiEEE4sizeEv
FN:75,_ZNKSt16initializer_listIiE5beginEv
FN:75,_ZNKSt16initializer_listISt6vectorIiSaIiEEE5beginEv
FN:79,_ZNKSt16initializer_listISt6vectorIiSaIiEEE3endEv
FN:79,_ZNKSt16initializer_listIiE3endEv
FNDA:80,_ZNKSt16initializer_listISt6vectorIiSaIiEEE4sizeEv
FNDA:0,_ZNKSt16initializer_listIiE4sizeEv
FNDA:160,_ZNKSt16initializer_listISt6vectorIiSaIiEEE5beginEv
FNDA:0,_ZNKSt16initializer_listIiE5beginEv
FNDA:80,_ZNKSt16initializer_listISt6vectorIiSaIiEEE3endEv
FNDA:0,_ZNKSt16initializer_listIiE3endEv
FNF:6
FNH:3
DA:71,80
DA:75,160
DA:79,80
LF:3
LH:3
end_of_record
SF:/usr/include/c++/4.8/iostream
DA:74,8
LF:1
LH:1
end_of_record
SF:/usr/include/c++/4.8/new
FN:109,_ZnwmPv
FN:115,_ZdlPvS_
FNDA:0,_ZnwmPv
FNDA:0,_ZdlPvS_
FNF:2
FNH:0
DA:109,0
DA:110,0
DA:115,0
LF:3
LH:0
end_of_record
SF:/usr/include/c++/4.8/sstream
FN:64,_ZNSt15basic_stringbufIcSt11char_traitsIcESaIcEED0Ev
FN:64,_ZNSt15basic_stringbufIcSt11char_traitsIcESaIcEED2Ev
FNDA:0,_ZNSt15basic_stringbufIcSt11char_traitsIcESaIcEED0Ev
FNDA:0,_ZNSt15basic_stringbufIcSt11char_traitsIcESaIcEED2Ev
FNF:2
FNH:0
DA:64,0
LF:1
LH:0
end_of_record
SF:/usr/include/x86_64-linux-gnu/c++/4.8/bits/gthr-default.h
FN:247,_ZL18__gthread_active_pv
FNDA:0,_ZL18__gthread_active_pv
FNF:1
FNH:0
DA:247,0
DA:251,0
LF:2
LH:0
end_of_record
TN:
SF:/home/ruslan/Facultad/Algo1 2017/TPI2017/TPIalgo1/salaDeReuniones_TPI/src/lib/googletest-master/googletest/include/gtest/gtest-message.h
FN:85,_ZN7testing7MessageD2Ev
FNDA:200,_ZN7testing7MessageD2Ev
FNF:1
FNH:1
DA:85,200
LF:1
LH:1
end_of_record
SF:/home/ruslan/Facultad/Algo1 2017/TPI2017/TPIalgo1/salaDeReuniones_TPI/src/lib/googletest-master/googletest/include/gtest/gtest-printers.h
FN:275,_ZN7testing8internal19FormatForComparisonIbbE6FormatERKb
FN:349,_ZN7testing8internal33FormatForComparisonFailureMessageIbbEESsRKT_RKT0_
FN:511,_ZN7testing8internal7PrintToEbPSo
FN:714,_ZN7testing8internal16UniversalPrinterIbE5PrintERKbPSo
FN:799,_ZN7testing8internal21UniversalTersePrinterIbE5PrintERKbPSo
FN:868,_ZN7testing8internal14UniversalPrintIbEEvRKT_PSo
FN:996,_ZN7testing13PrintToStringIbEESsRKT_
FNDA:0,_ZN7testing8internal19FormatForComparisonIbbE6FormatERKb
FNDA:0,_ZN7testing8internal33FormatForComparisonFailureMessageIbbEESsRKT_RKT0_
FNDA:0,_ZN7testing8internal7PrintToEbPSo
FNDA:0,_ZN7testing8internal16UniversalPrinterIbE5PrintERKbPSo
FNDA:0,_ZN7testing8internal21UniversalTersePrinterIbE5PrintERKbPSo
FNDA:0,_ZN7testing8internal14UniversalPrintIbEEvRKT_PSo
FNDA:0,_ZN7testing13PrintToStringIbEESsRKT_
FNF:7
FNH:0
DA:275,0
DA:276,0
DA:349,0
DA:351,0
DA:511,0
DA:512,0
DA:513,0
DA:714,0
DA:723,0
DA:724,0
DA:799,0
DA:800,0
DA:801,0
DA:868,0
DA:872,0
DA:873,0
DA:996,0
DA:997,0
DA:998,0
DA:999,0
LF:20
LH:0
end_of_record
SF:/home/ruslan/Facultad/Algo1 2017/TPI2017/TPIalgo1/salaDeReuniones_TPI/src/lib/googletest-master/googletest/include/gtest/gtest.h
FN:256,_ZN7testing15AssertionResultD2Ev
FN:288,_ZNK7testing15AssertionResultcvbEv
FN:297,_ZNK7testing15AssertionResult7messageEv
FN:302,_ZNK7testing15AssertionResult15failure_messageEv
FN:389,_ZN7testing4Test13SetUpTestCaseEv
FN:397,_ZN7testing4Test16TearDownTestCaseEv
FN:474,_ZN7testing4Test5SetupEv
FN:1375,_ZN7testing8internal18CmpHelperEQFailureIbbEENS_15AssertionResultEPKcS4_RKT_RKT0_
FN:1387,_ZN7testing8internal11CmpHelperEQIbbEENS_15AssertionResultEPKcS4_RKT_RKT0_
FN:1417,_ZN7testing8internal8EqHelperILb0EE7CompareIbbEENS_15AssertionResultEPKcS6_RKT_RKT0_
FN:1448,_ZN7testing8internal8EqHelperILb1EE7CompareIbbEENS_15AssertionResultEPKcS6_RKT_RKT0_PNS0_8EnableIfIXntsrNS0_10is_pointerISA_EE5valueEE4typeE
FNDA:244,_ZN7testing15AssertionResultD2Ev
FNDA:244,_ZNK7testing15AssertionResultcvbEv
FNDA:0,_ZNK7testing15AssertionResult7messageEv
FNDA:0,_ZNK7testing15AssertionResult15failure_messageEv
FNDA:22,_ZN7testing4Test13SetUpTestCaseEv
FNDA:22,_ZN7testing4Test16TearDownTestCaseEv
FNDA:0,_ZN7testing4Test5SetupEv
FNDA:0,_ZN7testing8internal18CmpHelperEQFailureIbbEENS_15AssertionResultEPKcS4_RKT_RKT0_
FNDA:14,_ZN7testing8internal11CmpHelperEQIbbEENS_15AssertionResultEPKcS4_RKT_RKT0_
FNDA:10,_ZN7testing8internal8EqHelperILb0EE7CompareIbbEENS_15AssertionResultEPKcS6_RKT_RKT0_
FNDA:4,_ZN7testing8internal8EqHelperILb1EE7CompareIbbEENS_15AssertionResultEPKcS6_RKT_RKT0_PNS0_8EnableIfIXntsrNS0_10is_pointerISA_EE5valueEE4typeE
FNF:11
FNH:7
DA:256,244
DA:288,244
DA:297,0
DA:298,0
DA:302,0
DA:389,22
DA:397,22
DA:474,0
DA:1375,0
DA:1382,0
DA:1387,14
DA:1392,14
DA:1393,14
DA:1397,0
DA:1417,10
DA:1421,10
DA:1448,4
DA:1459,4
LF:18
LH:11
end_of_record
SF:/home/ruslan/Facultad/Algo1 2017/TPI2017/TPIalgo1/salaDeReuniones_TPI/src/lib/googletest-master/googletest/include/gtest/internal/gtest-internal.h
FN:466,_ZN7testing8internal15TestFactoryBaseD2Ev
FN:466,_ZN7testing8internal15TestFactoryBaseD0Ev
FN:473,_ZN7testing8internal15TestFactoryBaseC2Ev
FN:482,_ZN7testing8internal15TestFactoryImplI34grabacionValidaTEST_unaValida_TestEC2Ev
FN:482,_ZN7testing8internal15TestFactoryImplI33grabacionValidaTEST_noValida_TestEC2Ev
FN:482,_ZN7testing8internal15TestFactoryImplI34grabacionValidaTEST_unaValida_TestED0Ev
FN:482,_ZN7testing8internal15TestFactoryImplI37grabacionValidaTEST_otraNoValida_TestEC2Ev
FN:482,_ZN7testing8internal15TestFactoryImplI35grabacionValidaTEST_otraValida_TestED0Ev
FN:482,_ZN7testing8internal15TestFactoryImplI33grabacionValidaTEST_noValida_TestED2Ev
FN:482,_ZN7testing8internal15TestFactoryImplI37grabacionValidaTEST_otraNoValida_TestED0Ev
FN:482,_ZN7testing8internal15TestFactoryImplI35grabacionValidaTEST_otraValida_TestED2Ev
FN:482,_ZN7testing8internal15TestFactoryImplI37grabacionValidaTEST_otraNoValida_TestED2Ev
FN:482,_ZN7testing8internal15TestFactoryImplI35grabacionValidaTEST_otraValida_TestEC2Ev
FN:482,_ZN7testing8internal15TestFactoryImplI33grabacionValidaTEST_noValida_TestED0Ev
FN:482,_ZN7testing8internal15TestFactoryImplI34grabacionValidaTEST_unaValida_TestED2Ev
FN:484,_ZN7testing8internal15TestFactoryImplI34grabacionValidaTEST_unaValida_TestE10CreateTestEv
FN:484,_ZN7testing8internal15TestFactoryImplI37grabacionValidaTEST_otraNoValida_TestE10CreateTestEv
FN:484,_ZN7testing8internal15TestFactoryImplI35grabacionValidaTEST_otraValida_TestE10CreateTestEv
FN:484,_ZN7testing8internal15TestFactoryImplI33grabacionValidaTEST_noValida_TestE10CreateTestEv
FN:504,_ZN7testing8internal12CodeLocationD2Ev
FN:505,_ZN7testing8internal12CodeLocationC2ERKSsi
FNDA:0,_ZN7testing8internal15TestFactoryBaseD0Ev
FNDA:56,_ZN7testing8internal15TestFactoryBaseD2Ev
FNDA:56,_ZN7testing8internal15TestFactoryBaseC2Ev
FNDA:2,_ZN7testing8internal15TestFactoryImplI34grabacionValidaTEST_unaValida_TestED0Ev
FNDA:2,_ZN7testing8internal15TestFactoryImplI34grabacionValidaTEST_unaValida_TestED2Ev
FNDA:2,_ZN7testing8internal15TestFactoryImplI35grabacionValidaTEST_otraValida_TestED0Ev
FNDA:2,_ZN7testing8internal15TestFactoryImplI35grabacionValidaTEST_otraValida_TestED2Ev
FNDA:2,_ZN7testing8internal15TestFactoryImplI33grabacionValidaTEST_noValida_TestED0Ev
FNDA:2,_ZN7testing8internal15TestFactoryImplI33grabacionValidaTEST_noValida_TestED2Ev
FNDA:2,_ZN7testing8internal15TestFactoryImplI37grabacionValidaTEST_otraNoValida_TestED0Ev
FNDA:2,_ZN7testing8internal15TestFactoryImplI37grabacionValidaTEST_otraNoValida_TestED2Ev
FNDA:2,_ZN7testing8internal15TestFactoryImplI37grabacionValidaTEST_otraNoValida_TestEC2Ev
FNDA:2,_ZN7testing8internal15TestFactoryImplI33grabacionValidaTEST_noValida_TestEC2Ev
FNDA:2,_ZN7testing8internal15TestFactoryImplI35grabacionValidaTEST_otraValida_TestEC2Ev
FNDA:2,_ZN7testing8internal15TestFactoryImplI34grabacionValidaTEST_unaValida_TestEC2Ev
FNDA:2,_ZN7testing8internal15TestFactoryImplI34grabacionValidaTEST_unaValida_TestE10CreateTestEv
FNDA:2,_ZN7testing8internal15TestFactoryImplI35grabacionValidaTEST_otraValida_TestE10CreateTestEv
FNDA:2,_ZN7testing8internal15TestFactoryImplI33grabacionValidaTEST_noValida_TestE10CreateTestEv
FNDA:2,_ZN7testing8internal15TestFactoryImplI37grabacionValidaTEST_otraNoValida_TestE10CreateTestEv
FNDA:168,_ZN7testing8internal12CodeLocationD2Ev
FNDA:56,_ZN7testing8internal12CodeLocationC2ERKSsi
FNF:21
FNH:20
DA:466,56
DA:473,56
DA:482,24
DA:484,8
DA:504,168
DA:505,56
DA:506,56
LF:7
LH:7
end_of_record
SF:/home/ruslan/Facultad/Algo1 2017/TPI2017/TPIalgo1/salaDeReuniones_TPI/src/lib/googletest-master/googletest/include/gtest/internal/gtest-port.h
FN:1157,_ZN7testing8internal10scoped_ptrISsED2Ev
FN:1157,_ZN7testing8internal10scoped_ptrISt18basic_stringstreamIcSt11char_traitsIcESaIcEEED2Ev
FN:1160,_ZNK7testing8internal10scoped_ptrISsEptEv
FN:1161,_ZNK7testing8internal10scoped_ptrISsE3getEv
FN:1169,_ZN7testing8internal10scoped_ptrISt18basic_stringstreamIcSt11char_traitsIcESaIcEEE5resetEPS6_
FN:1169,_ZN7testing8internal10scoped_ptrISsE5resetEPSs
FNDA:244,_ZN7testing8internal10scoped_ptrISsED2Ev
FNDA:200,_ZN7testing8internal10scoped_ptrISt18basic_stringstreamIcSt11char_traitsIcESaIcEEED2Ev
FNDA:0,_ZNK7testing8internal10scoped_ptrISsEptEv
FNDA:0,_ZNK7testing8internal10scoped_ptrISsE3getEv
FNDA:200,_ZN7testing8internal10scoped_ptrISt18basic_stringstreamIcSt11char_traitsIcESaIcEEE5resetEPS6_
FNDA:244,_ZN7testing8internal10scoped_ptrISsE5resetEPSs
FNF:6
FNH:4
DA:1157,444
DA:1160,0
DA:1161,0
DA:1169,444
DA:1170,444
DA:1171,200
DA:1172,200
DA:1174,200
DA:1176,444
LF:9
LH:7
end_of_record
SF:/home/ruslan/Facultad/Algo1 2017/TPI2017/TPIalgo1/salaDeReuniones_TPI/src/tests/grabacionValidaTEST.cpp
FN:7,_ZN34grabacionValidaTEST_unaValida_TestD2Ev
FN:7,_ZN34grabacionValidaTEST_unaValida_Test8TestBodyEv
FN:7,_Z41__static_initialization_and_destruction_0ii
FN:7,_ZN34grabacionValidaTEST_unaValida_TestD0Ev
FN:7,_ZN34grabacionValidaTEST_unaValida_TestC2Ev
FN:15,_ZN35grabacionValidaTEST_otraValida_Test8TestBodyEv
FN:15,_ZN35grabacionValidaTEST_otraValida_TestC2Ev
FN:15,_ZN35grabacionValidaTEST_otraValida_TestD0Ev
FN:15,_ZN35grabacionValidaTEST_otraValida_TestD2Ev
FN:22,_ZN33grabacionValidaTEST_noValida_TestD0Ev
FN:22,_ZN33grabacionValidaTEST_noValida_TestC2Ev
FN:22,_ZN33grabacionValidaTEST_noValida_Test8TestBodyEv
FN:22,_ZN33grabacionValidaTEST_noValida_TestD2Ev
FN:30,_ZN37grabacionValidaTEST_otraNoValida_TestD0Ev
FN:30,_ZN37grabacionValidaTEST_otraNoValida_TestC2Ev
FN:30,_ZN37grabacionValidaTEST_otraNoValida_Test8TestBodyEv
FN:30,_ZN37grabacionValidaTEST_otraNoValida_TestD2Ev
FN:35,_GLOBAL__sub_I__ZN34grabacionValidaTEST_unaValida_Test10test_info_E
FNDA:2,_ZN34grabacionValidaTEST_unaValida_TestD0Ev
FNDA:2,_ZN34grabacionValidaTEST_unaValida_TestD2Ev
FNDA:2,_ZN34grabacionValidaTEST_unaValida_Test8TestBodyEv
FNDA:2,_ZN34grabacionValidaTEST_unaValida_TestC2Ev
FNDA:2,_ZN35grabacionValidaTEST_otraValida_TestD0Ev
FNDA:2,_ZN35grabacionValidaTEST_otraValida_TestD2Ev
FNDA:2,_ZN35grabacionValidaTEST_otraValida_Test8TestBodyEv
FNDA:2,_ZN35grabacionValidaTEST_otraValida_TestC2Ev
FNDA:2,_ZN33grabacionValidaTEST_noValida_TestD0Ev
FNDA:2,_ZN33grabacionValidaTEST_noValida_TestD2Ev
FNDA:2,_ZN33grabacionValidaTEST_noValida_Test8TestBodyEv
FNDA:2,_ZN33grabacionValidaTEST_noValida_TestC2Ev
FNDA:2,_ZN37grabacionValidaTEST_otraNoValida_TestD0Ev
FNDA:2,_ZN37grabacionValidaTEST_otraNoValida_TestD2Ev
FNDA:2,_ZN37grabacionValidaTEST_otraNoValida_Test8TestBodyEv
FNDA:2,_ZN37grabacionValidaTEST_otraNoValida_TestC2Ev
FNDA:2,_GLOBAL__sub_I__ZN34grabacionValidaTEST_unaValida_Test10test_info_E
FNDA:2,_Z41__static_initialization_and_destruction_0ii
FNF:18
FNH:18
DA:7,10
DA:8,2
DA:9,2
DA:10,2
DA:12,2
DA:13,2
DA:15,10
DA:16,2
DA:17,2
DA:18,2
DA:19,2
DA:20,2
DA:22,10
DA:23,2
DA:24,2
DA:25,2
DA:27,2
DA:28,2
DA:30,10
DA:31,2
DA:32,2
DA:33,2
DA:34,2
DA:35,8
LF:24
LH:24
end_of_record
SF:/usr/include/c++/4.8/bits/alloc_traits.h
FN:337,_ZNSt16allocator_traitsISaIiEE9_S_selectIKS0_EENSt9enable_ifIXntsrNS1_15__select_helperIT_EE5valueES6_E4typeERS6_
FN:427,_ZNSt16allocator_traitsISaIiEE37select_on_container_copy_constructionERKS0_
FNDA:0,_ZNSt16allocator_traitsISaIiEE9_S_selectIKS0_EENSt9enable_ifIXntsrNS1_15__select_helperIT_EE5valueES6_E4typeERS6_
FNDA:0,_ZNSt16allocator_traitsISaIiEE37select_on_container_copy_constructionERKS0_
FNF:2
FNH:0
DA:337,0
DA:338,0
DA:427,0
DA:428,0
LF:4
LH:0
end_of_record
SF:/usr/include/c++/4.8/bits/allocator.h
FN:113,_ZNSaIiEC2Ev
FN:115,_ZNSaIiEC2ERKS_
FN:121,_ZNSaIiED2Ev
FN:133,_ZSteqIcEbRKSaIT_ES3_
FNDA:0,_ZNSaIiEC2Ev
FNDA:0,_ZNSaIiEC2ERKS_
FNDA:0,_ZNSaIiED2Ev
FNDA:0,_ZSteqIcEbRKSaIT_ES3_
FNF:4
FNH:0
DA:113,0
DA:115,0
DA:116,0
DA:121,0
DA:133,0
DA:134,0
LF:6
LH:0
end_of_record
SF:/usr/include/c++/4.8/bits/basic_string.h
FN:272,_ZNSs12_Alloc_hiderD2Ev
FN:1721,_ZNSs16_S_construct_auxIPcEES0_T_S1_RKSaIcESt12__false_type
FN:1743,_ZNSs12_S_constructIPcEES0_T_S1_RKSaIcE
FNDA:0,_ZNSs12_Alloc_hiderD2Ev
FNDA:0,_ZNSs16_S_construct_auxIPcEES0_T_S1_RKSaIcESt12__false_type
FNDA:0,_ZNSs12_S_constructIPcEES0_T_S1_RKSaIcE
FNF:3
FNH:0
DA:272,0
DA:1721,0
DA:1725,0
DA:1743,0
DA:1746,0
LF:5
LH:0
end_of_record
SF:/usr/include/c++/4.8/bits/basic_string.tcc
FN:123,_ZNSs12_S_constructIPcEES0_T_S1_RKSaIcESt20forward_iterator_tag
FN:227,_ZNSsC2IPcEET_S1_RKSaIcE
FNDA:0,_ZNSs12_S_constructIPcEES0_T_S1_RKSaIcESt20forward_iterator_tag
FNDA:0,_ZNSsC2IPcEET_S1_RKSaIcE
FNF:2
FNH:0
DA:123,0
DA:128,0
DA:129,0
DA:132,0
DA:133,0
DA:136,0
DA:138,0
DA:140,0
DA:141,=====
DA:143,=====
DA:144,=====
DA:146,0
DA:147,0
DA:227,0
DA:229,0
DA:230,0
LF:16
LH:0
end_of_record
SF:/usr/include/c++/4.8/bits/char_traits.h
FN:242,_ZNSt11char_traitsIcE6assignERcRKc
FN:258,_ZNSt11char_traitsIcE6lengthEPKc
FN:270,_ZNSt11char_traitsIcE4copyEPcPKcm
FNDA:0,_ZNSt11char_traitsIcE6assignERcRKc
FNDA:0,_ZNSt11char_traitsIcE6lengthEPKc
FNDA:0,_ZNSt11char_traitsIcE4copyEPcPKcm
FNF:3
FNH:0
DA:242,0
DA:243,0
DA:258,0
DA:259,0
DA:270,0
DA:271,0
LF:6
LH:0
end_of_record
SF:/usr/include/c++/4.8/bits/ios_base.h
FN:123,_ZStorSt13_Ios_OpenmodeS_
FN:163,_ZStorSt12_Ios_IostateS_
FNDA:0,_ZStorSt13_Ios_OpenmodeS_
FNDA:0,_ZStorSt12_Ios_IostateS_
FNF:2
FNH:0
DA:123,0
DA:124,0
DA:163,0
DA:164,0
LF:4
LH:0
end_of_record
SF:/usr/include/c++/4.8/bits/stl_algobase.h
FN:277,_ZSt12__niter_baseIPKiENSt11_Niter_baseIT_E13iterator_typeES3_
FN:277,_ZSt12__niter_baseIN9__gnu_cxx17__normal_iteratorIPKiSt6vectorIiSaIiEEEEENSt11_Niter_baseIT_E13iterator_typeES9_
FN:277,_ZSt12__niter_baseIPiENSt11_Niter_baseIT_E13iterator_typeES2_
FN:288,_ZSt12__miter_baseIN9__gnu_cxx17__normal_iteratorIPKiSt6vectorIiSaIiEEEEENSt11_Miter_baseIT_E13iterator_typeES9_
FN:288,_ZSt12__miter_baseIPKiENSt11_Miter_baseIT_E13iterator_typeES3_
FN:368,_ZNSt11__copy_moveILb0ELb1ESt26random_access_iterator_tagE8__copy_mIiEEPT_PKS3_S6_S4_
FN:379,_ZSt13__copy_move_aILb0EPKiPiET1_T0_S4_S3_
FN:424,_ZSt14__copy_move_a2ILb0EN9__gnu_cxx17__normal_iteratorIPKiSt6vectorIiSaIiEEEEPiET1_T0_SA_S9_
FN:424,_ZSt14__copy_move_a2ILb0EPKiPiET1_T0_S4_S3_
FN:450,_ZSt4copyIPKiPiET0_T_S4_S3_
FN:450,_ZSt4copyIN9__gnu_cxx17__normal_iteratorIPKiSt6vectorIiSaIiEEEEPiET0_T_SA_S9_
FNDA:200,_ZSt12__niter_baseIPKiENSt11_Niter_baseIT_E13iterator_typeES3_
FNDA:0,_ZSt12__niter_baseIPiENSt11_Niter_baseIT_E13iterator_typeES2_
FNDA:0,_ZSt12__niter_baseIN9__gnu_cxx17__normal_iteratorIPKiSt6vectorIiSaIiEEEEENSt11_Niter_baseIT_E13iterator_typeES9_
FNDA:200,_ZSt12__miter_baseIPKiENSt11_Miter_baseIT_E13iterator_typeES3_
FNDA:0,_ZSt12__miter_baseIN9__gnu_cxx17__normal_iteratorIPKiSt6vectorIiSaIiEEEEENSt11_Miter_baseIT_E13iterator_typeES9_
FNDA:0,_ZNSt11__copy_moveILb0ELb1ESt26random_access_iterator_tagE8__copy_mIiEEPT_PKS3_S6_S4_
FNDA:0,_ZSt13__copy_move_aILb0EPKiPiET1_T0_S4_S3_
FNDA:100,_ZSt14__copy_move_a2ILb0EPKiPiET1_T0_S4_S3_
FNDA:0,_ZSt14__copy_move_a2ILb0EN9__gnu_cxx17__normal_iteratorIPKiSt6vectorIiSaIiEEEEPiET1_T0_SA_S9_
FNDA:100,_ZSt4copyIPKiPiET0_T_S4_S3_
FNDA:0,_ZSt4copyIN9__gnu_cxx17__normal_iteratorIPKiSt6vectorIiSaIiEEEEPiET0_T_SA_S9_
FNF:11
FNH:4
DA:277,200
DA:278,200
DA:288,200
DA:289,200
DA:368,0
DA:370,0
DA:371,0
DA:372,0
DA:373,0
DA:379,0
DA:387,0
DA:390,0
DA:424,100
DA:428,100
DA:450,100
DA:460,100
LF:16
LH:8
end_of_record
SF:/usr/include/c++/4.8/bits/stl_construct.h
FN:112,_ZNSt12_Destroy_auxILb1EE9__destroyIPiEEvT_S3_
FN:122,_ZSt8_DestroyIPiEvT_S1_
FN:148,_ZSt8_DestroyIPiiEvT_S1_RSaIT0_E
FNDA:0,_ZNSt12_Destroy_auxILb1EE9__destroyIPiEEvT_S3_
FNDA:0,_ZSt8_DestroyIPiEvT_S1_
FNDA:0,_ZSt8_DestroyIPiiEvT_S1_RSaIT0_E
FNF:3
FNH:0
DA:112,0
DA:122,0
DA:126,0
DA:128,0
DA:148,0
DA:151,0
DA:152,0
LF:7
LH:0
end_of_record
SF:/usr/include/c++/4.8/bits/stl_iterator.h
FN:726,_ZN9__gnu_cxx17__normal_iteratorIPKiSt6vectorIiSaIiEEEC2ERKS2_
FN:790,_ZNK9__gnu_cxx17__normal_iteratorIPKiSt6vectorIiSaIiEEE4baseEv
FNDA:0,_ZN9__gnu_cxx17__normal_iteratorIPKiSt6vectorIiSaIiEEEC2ERKS2_
FNDA:0,_ZNK9__gnu_cxx17__normal_iteratorIPKiSt6vectorIiSaIiEEE4baseEv
FNF:2
FNH:0
DA:726,0
DA:790,0
DA:791,0
LF:3
LH:0
end_of_record
SF:/usr/include/c++/4.8/bits/stl_iterator_base_funcs.h
FN:90,_ZSt10__distanceIPKiENSt15iterator_traitsIT_E15difference_typeES3_S3_St26random_access_iterator_tag
FN:90,_ZSt10__distanceIPcENSt15iterator_traitsIT_E15difference_typeES2_S2_St26random_access_iterator_tag
FN:114,_ZSt8distanceIPcENSt15iterator_traitsIT_E15difference_typeES2_S2_
FN:114,_ZSt8distanceIPKiENSt15iterator_traitsIT_E15difference_typeES3_S3_
FNDA:0,_ZSt10__distanceIPcENSt15iterator_traitsIT_E15difference_typeES2_S2_St26random_access_iterator_tag
FNDA:100,_ZSt10__distanceIPKiENSt15iterator_traitsIT_E15difference_typeES3_S3_St26random_access_iterator_tag
FNDA:0,_ZSt8distanceIPcENSt15iterator_traitsIT_E15difference_typeES2_S2_
FNDA:100,_ZSt8distanceIPKiENSt15iterator_traitsIT_E15difference_typeES3_S3_
FNF:4
FNH:2
DA:90,100
DA:96,100
DA:114,100
DA:118,100
LF:4
LH:4
end_of_record
SF:/usr/include/c++/4.8/bits/stl_iterator_base_types.h
FN:201,_ZSt19__iterator_categoryIPcENSt15iterator_traitsIT_E17iterator_categoryERKS2_
FN:201,_ZSt19__iterator_categoryIPKiENSt15iterator_traitsIT_E17iterator_categoryERKS3_
FN:212,_ZNSt10_Iter_baseIN9__gnu_cxx17__normal_iteratorIPKiSt6vectorIiSaIiEEEELb0EE7_S_baseES7_
FN:212,_ZNSt10_Iter_baseIPiLb0EE7_S_baseES0_
FN:212,_ZNSt10_Iter_baseIPKiLb0EE7_S_baseES1_
FN:220,_ZNSt10_Iter_baseIN9__gnu_cxx17__normal_iteratorIPKiSt6vectorIiSaIiEEEELb1EE7_S_baseES7_
FNDA:0,_ZSt19__iterator_categoryIPcENSt15iterator_traitsIT_E17iterator_categoryERKS2_
FNDA:100,_ZSt19__iterator_categoryIPKiENSt15iterator_traitsIT_E17iterator_categoryERKS3_
FNDA:0,_ZNSt10_Iter_baseIPiLb0EE7_S_baseES0_
FNDA:400,_ZNSt10_Iter_baseIPKiLb0EE7_S_baseES1_
FNDA:0,_ZNSt10_Iter_baseIN9__gnu_cxx17__normal_iteratorIPKiSt6vectorIiSaIiEEEELb0EE7_S_baseES7_
FNDA:0,_ZNSt10_Iter_baseIN9__gnu_cxx17__normal_iteratorIPKiSt6vectorIiSaIiEEEELb1EE7_S_baseES7_
FNF:6
FNH:2
DA:201,100
DA:202,100
DA:212,400
DA:213,400
DA:220,0
DA:221,0
LF:6
LH:4
end_of_record
SF:/usr/include/c++/4.8/bits/stl_uninitialized.h
FN:91,_ZNSt20__uninitialized_copyILb1EE13__uninit_copyIN9__gnu_cxx17__normal_iteratorIPKiSt6vectorIiSaIiEEEEPiEET0_T_SC_SB_
FN:91,_ZNSt20__uninitialized_copyILb1EE13__uninit_copyIPKiPiEET0_T_S6_S5_
FN:107,_ZSt18uninitialized_copyIN9__gnu_cxx17__normal_iteratorIPKiSt6vectorIiSaIiEEEEPiET0_T_SA_S9_
FN:107,_ZSt18uninitialized_copyIPKiPiET0_T_S4_S3_
FN:256,_ZSt22__uninitialized_copy_aIN9__gnu_cxx17__normal_iteratorIPKiSt6vectorIiSaIiEEEEPiiET0_T_SA_S9_RSaIT1_E
FN:256,_ZSt22__uninitialized_copy_aIPKiPiiET0_T_S4_S3_RSaIT1_E
FNDA:100,_ZNSt20__uninitialized_copyILb1EE13__uninit_copyIPKiPiEET0_T_S6_S5_
FNDA:0,_ZNSt20__uninitialized_copyILb1EE13__uninit_copyIN9__gnu_cxx17__normal_iteratorIPKiSt6vectorIiSaIiEEEEPiEET0_T_SC_SB_
FNDA:100,_ZSt18uninitialized_copyIPKiPiET0_T_S4_S3_
FNDA:0,_ZSt18uninitialized_copyIN9__gnu_cxx17__normal_iteratorIPKiSt6vectorIiSaIiEEEEPiET0_T_SA_S9_
FNDA:100,_ZSt22__uninitialized_copy_aIPKiPiiET0_T_S4_S3_RSaIT1_E
FNDA:0,_ZSt22__uninitialized_copy_aIN9__gnu_cxx17__normal_iteratorIPKiSt6vectorIiSaIiEEEEPiiET0_T_SA_S9_RSaIT1_E
FNF:6
FNH:3
DA:91,100
DA:93,100
DA:107,100
DA:117,100
DA:256,100
DA:258,100
LF:6
LH:6
end_of_record
SF:/usr/include/c++/4.8/bits/stl_vector.h
FN:79,_ZNSt12_Vector_baseIiSaIiEE12_Vector_implD2Ev
FN:90,_ZNSt12_Vector_baseIiSaIiEE12_Vector_implC2ERKS0_
FN:113,_ZNSt12_Vector_baseIiSaIiEE19_M_get_Tp_allocatorEv
FN:117,_ZNKSt12_Vector_baseIiSaIiEE19_M_get_Tp_allocatorEv
FN:127,_ZNSt12_Vector_baseIiSaIiEEC2ERKS0_
FN:134,_ZNSt12_Vector_baseIiSaIiEEC2EmRKS0_
FN:159,_ZNSt12_Vector_baseIiSaIiEED2Ev
FN:167,_ZNSt12_Vector_baseIiSaIiEE11_M_allocateEm
FN:171,_ZNSt12_Vector_baseIiSaIiEE13_M_deallocateEPim
FN:179,_ZNSt12_Vector_baseIiSaIiEE17_M_create_storageEm
FN:310,_ZNSt6vectorIiSaIiEEC2ERKS1_
FN:364,_ZNSt6vectorIiSaIiEEC2ESt16initializer_listIiERKS0_
FN:414,_ZNSt6vectorIiSaIiEED2Ev
FN:547,_ZNKSt6vectorIiSaIiEE5beginEv
FN:565,_ZNKSt6vectorIiSaIiEE3endEv
FN:645,_ZNKSt6vectorIiSaIiEE4sizeEv
FN:1197,_ZNSt6vectorIiSaIiEE19_M_range_initializeIPKiEEvT_S5_St20forward_iterator_tag
FNDA:0,_ZNSt12_Vector_baseIiSaIiEE12_Vector_implD2Ev
FNDA:0,_ZNSt12_Vector_baseIiSaIiEE12_Vector_implC2ERKS0_
FNDA:0,_ZNSt12_Vector_baseIiSaIiEE19_M_get_Tp_allocatorEv
FNDA:0,_ZNKSt12_Vector_baseIiSaIiEE19_M_get_Tp_allocatorEv
FNDA:0,_ZNSt12_Vector_baseIiSaIiEEC2ERKS0_
FNDA:0,_ZNSt12_Vector_baseIiSaIiEEC2EmRKS0_
FNDA:0,_ZNSt12_Vector_baseIiSaIiEED2Ev
FNDA:0,_ZNSt12_Vector_baseIiSaIiEE11_M_allocateEm
FNDA:0,_ZNSt12_Vector_baseIiSaIiEE13_M_deallocateEPim
FNDA:0,_ZNSt12_Vector_baseIiSaIiEE17_M_create_storageEm
FNDA:0,_ZNSt6vectorIiSaIiEEC2ERKS1_
FNDA:100,_ZNSt6vectorIiSaIiEEC2ESt16initializer_listIiERKS0_
FNDA:0,_ZNSt6vectorIiSaIiEED2Ev
FNDA:0,_ZNKSt6vectorIiSaIiEE5beginEv
FNDA:0,_ZNKSt6vectorIiSaIiEE3endEv
FNDA:0,_ZNKSt6vectorIiSaIiEE4sizeEv
FNDA:100,_ZNSt6vectorIiSaIiEE19_M_range_initializeIPKiEEvT_S5_St20forward_iterator_tag
FNF:17
FNH:2
DA:79,0
DA:90,0
DA:91,0
DA:92,0
DA:113,0
DA:114,0
DA:117,0
DA:118,0
DA:127,0
DA:128,0
DA:134,0
DA:135,0
DA:136,0
DA:159,0
DA:160,0
DA:161,0
DA:167,0
DA:168,0
DA:171,0
DA:173,0
DA:174,0
DA:175,0
DA:179,0
DA:181,0
DA:182,0
DA:183,0
DA:184,0
DA:310,0
DA:312,0
DA:313,0
DA:316,0
DA:317,0
DA:364,100
DA:366,100
DA:368,100
DA:369,200
DA:370,100
DA:414,0
DA:415,0
DA:416,0
DA:547,0
DA:548,0
DA:565,0
DA:566,0
DA:645,0
DA:646,0
DA:1197,100
DA:1200,100
DA:1201,100
DA:1202,100
DA:1203,100
DA:1206,100
DA:1207,100
LF:53
LH:12
end_of_record
SF:/usr/include/c++/4.8/ext/alloc_traits.h
FN:166,_ZN9__gnu_cxx14__alloc_traitsISaIiEE17_S_select_on_copyERKS1_
FNDA:0,_ZN9__gnu_cxx14__alloc_traitsISaIiEE17_S_select_on_copyERKS1_
FNF:1
FNH:0
DA:166,0
DA:167,0
LF:2
LH:0
end_of_record
SF:/usr/include/c++/4.8/ext/atomicity.h
FN:48,_ZN9__gnu_cxxL18__exchange_and_addEPVii
FN:65,_ZN9__gnu_cxxL25__exchange_and_add_singleEPii
FN:78,_ZN9__gnu_cxxL27__exchange_and_add_dispatchEPii
FNDA:0,_ZN9__gnu_cxxL18__exchange_and_addEPVii
FNDA:0,_ZN9__gnu_cxxL25__exchange_and_add_singleEPii
FNDA:0,_ZN9__gnu_cxxL27__exchange_and_add_dispatchEPii
FNF:3
FNH:0
DA:48,0
DA:49,0
DA:65,0
DA:67,0
DA:68,0
DA:69,0
DA:78,0
DA:81,0
DA:82,0
DA:84,0
LF:10
LH:0
end_of_record
SF:/usr/include/c++/4.8/ext/new_allocator.h
FN:79,_ZN9__gnu_cxx13new_allocatorIiEC2Ev
FN:79,_ZN9__gnu_cxx13new_allocatorIcEC2Ev
FN:81,_ZN9__gnu_cxx13new_allocatorIcEC2ERKS1_
FN:81,_ZN9__gnu_cxx13new_allocatorIiEC2ERKS1_
FN:86,_ZN9__gnu_cxx13new_allocatorIcED2Ev
FN:86,_ZN9__gnu_cxx13new_allocatorIiED2Ev
FN:99,_ZN9__gnu_cxx13new_allocatorIiE8allocateEmPKv
FN:109,_ZN9__gnu_cxx13new_allocatorIiE10deallocateEPim
FN:113,_ZNK9__gnu_cxx13new_allocatorIiE8max_sizeEv
FNDA:0,_ZN9__gnu_cxx13new_allocatorIiEC2Ev
FNDA:0,_ZN9__gnu_cxx13new_allocatorIcEC2Ev
FNDA:0,_ZN9__gnu_cxx13new_allocatorIiEC2ERKS1_
FNDA:0,_ZN9__gnu_cxx13new_allocatorIcEC2ERKS1_
FNDA:0,_ZN9__gnu_cxx13new_allocatorIiED2Ev
FNDA:0,_ZN9__gnu_cxx13new_allocatorIcED2Ev
FNDA:0,_ZN9__gnu_cxx13new_allocatorIiE8allocateEmPKv
FNDA:0,_ZN9__gnu_cxx13new_allocatorIiE10deallocateEPim
FNDA:0,_ZNK9__gnu_cxx13new_allocatorIiE8max_sizeEv
FNF:9
FNH:0
DA:79,0
DA:81,0
DA:86,0
DA:99,0
DA:101,0
DA:102,0
DA:104,0
DA:109,0
DA:110,0
DA:113,0
DA:114,0
LF:11
LH:0
end_of_record
SF:/usr/include/c++/4.8/ext/type_traits.h
FN:150,_ZN9__gnu_cxx17__is_null_pointerIcEEbPT_
FNDA:0,_ZN9__gnu_cxx17__is_null_pointerIcEEbPT_
FNF:1
FNH:0
DA:150,0
DA:151,0
LF:2
LH:0
end_of_record
SF:/usr/include/c++/4.8/initializer_list
FN:71,_ZNKSt16initializer_listIiE4sizeEv
FN:75,_ZNKSt16initializer_listIiE5beginEv
FN:79,_ZNKSt16initializer_listIiE3endEv
FNDA:100,_ZNKSt16initializer_listIiE4sizeEv
FNDA:200,_ZNKSt16initializer_listIiE5beginEv
FNDA:100,_ZNKSt16initializer_listIiE3endEv
FNF:3
FNH:3
DA:71,100
DA:75,200
DA:79,100
LF:3
LH:3
end_of_record
SF:/usr/include/c++/4.8/iostream
DA:74,2
LF:1
LH:1
end_of_record
SF:/usr/include/c++/4.8/sstream
FN:64,_ZNSt15basic_stringbufIcSt11char_traitsIcESaIcEED2Ev
FN:64,_ZNSt15basic_stringbufIcSt11char_traitsIcESaIcEED0Ev
FNDA:0,_ZNSt15basic_stringbufIcSt11char_traitsIcESaIcEED0Ev
FNDA:0,_ZNSt15basic_stringbufIcSt11char_traitsIcESaIcEED2Ev
FNF:2
FNH:0
DA:64,0
LF:1
LH:0
end_of_record
SF:/usr/include/x86_64-linux-gnu/c++/4.8/bits/gthr-default.h
FN:247,_ZL18__gthread_active_pv
FNDA:0,_ZL18__gthread_active_pv
FNF:1
FNH:0
DA:247,0
DA:251,0
LF:2
LH:0
end_of_record
TN:
SF:/home/ruslan/Facultad/Algo1 2017/TPI2017/TPIalgo1/salaDeReuniones_TPI/src/lib/googletest-master/googletest/include/gtest/gtest-message.h
FN:85,_ZN7testing7MessageD2Ev
FNDA:0,_ZN7testing7MessageD2Ev
FNF:1
FNH:0
DA:85,0
LF:1
LH:0
end_of_record
SF:/home/ruslan/Facultad/Algo1 2017/TPI2017/TPIalgo1/salaDeReuniones_TPI/src/lib/googletest-master/googletest/include/gtest/gtest-printers.h
FN:222,_ZN16testing_internal26DefaultPrintNonContainerToIiEEvRKT_PSo
FN:222,_ZN16testing_internal26DefaultPrintNonContainerToIfEEvRKT_PSo
FN:222,_ZN16testing_internal26DefaultPrintNonContainerToImEEvRKT_PSo
FN:275,_ZN7testing8internal19FormatForComparisonIimE6FormatERKi
FN:275,_ZN7testing8internal19FormatForComparisonIifE6FormatERKi
FN:275,_ZN7testing8internal19FormatForComparisonIiiE6FormatERKi
FN:275,_ZN7testing8internal19FormatForComparisonImiE6FormatERKm
FN:275,_ZN7testing8internal19FormatForComparisonIfiE6FormatERKf
FN:349,_ZN7testing8internal33FormatForComparisonFailureMessageIimEESsRKT_RKT0_
FN:349,_ZN7testing8internal33FormatForComparisonFailureMessageIfiEESsRKT_RKT0_
FN:349,_ZN7testing8internal33FormatForComparisonFailureMessageIiiEESsRKT_RKT0_
FN:349,_ZN7testing8internal33FormatForComparisonFailureMessageIifEESsRKT_RKT0_
FN:349,_ZN7testing8internal33FormatForComparisonFailureMessageImiEESsRKT_RKT0_
FN:442,_ZN7testing8internal14DefaultPrintToImEEvNS0_15WrapPrinterTypeILNS0_18DefaultPrinterTypeE3EEERKT_PSo
FN:442,_ZN7testing8internal14DefaultPrintToIiEEvNS0_15WrapPrinterTypeILNS0_18DefaultPrinterTypeE3EEERKT_PSo
FN:442,_ZN7testing8internal14DefaultPrintToIfEEvNS0_15WrapPrinterTypeILNS0_18DefaultPrinterTypeE3EEERKT_PSo
FN:459,_ZN7testing8internal7PrintToIiEEvRKT_PSo
FN:459,_ZN7testing8internal7PrintToIfEEvRKT_PSo
FN:459,_ZN7testing8internal7PrintToImEEvRKT_PSo
FN:714,_ZN7testing8internal16UniversalPrinterIiE5PrintERKiPSo
FN:714,_ZN7testing8internal16UniversalPrinterImE5PrintERKmPSo
FN:714,_ZN7testing8internal16UniversalPrinterIfE5PrintERKfPSo
FN:799,_ZN7testing8internal21UniversalTersePrinterIfE5PrintERKfPSo
FN:799,_ZN7testing8internal21UniversalTersePrinterImE5PrintERKmPSo
FN:799,_ZN7testing8internal21UniversalTersePrinterIiE5PrintERKiPSo
FN:868,_ZN7testing8internal14UniversalPrintIfEEvRKT_PSo
FN:868,_ZN7testing8internal14UniversalPrintImEEvRKT_PSo
FN:868,_ZN7testing8internal14UniversalPrintIiEEvRKT_PSo
FN:996,_ZN7testing13PrintToStringIiEESsRKT_
FN:996,_ZN7testing13PrintToStringIfEESsRKT_
FN:996,_ZN7testing13PrintToStringImEESsRKT_
FNDA:0,_ZN16testing_internal26DefaultPrintNonContainerToIfEEvRKT_PSo
FNDA:0,_ZN16testing_internal26DefaultPrintNonContainerToImEEvRKT_PSo
FNDA:0,_ZN16testing_internal26DefaultPrintNonContainerToIiEEvRKT_PSo
FNDA:0,_ZN7testing8internal19FormatForComparisonIifE6FormatERKi
FNDA:0,_ZN7testing8internal19FormatForComparisonIfiE6FormatERKf
FNDA:0,_ZN7testing8internal19FormatForComparisonIiiE6FormatERKi
FNDA:0,_ZN7testing8internal19FormatForComparisonImiE6FormatERKm
FNDA:0,_ZN7testing8internal19FormatForComparisonIimE6FormatERKi
FNDA:0,_ZN7testing8internal33FormatForComparisonFailureMessageIifEESsRKT_RKT0_
FNDA:0,_ZN7testing8internal33FormatForComparisonFailureMessageIfiEESsRKT_RKT0_
FNDA:0,_ZN7testing8internal33FormatForComparisonFailureMessageIiiEESsRKT_RKT0_
FNDA:0,_ZN7testing8internal33FormatForComparisonFailureMessageImiEESsRKT_RKT0_
FNDA:0,_ZN7testing8internal33FormatForComparisonFailureMessageIimEESsRKT_RKT0_
FNDA:0,_ZN7testing8internal14DefaultPrintToIfEEvNS0_15WrapPrinterTypeILNS0_18DefaultPrinterTypeE3EEERKT_PSo
FNDA:0,_ZN7testing8internal14DefaultPrintToImEEvNS0_15WrapPrinterTypeILNS0_18DefaultPrinterTypeE3EEERKT_PSo
FNDA:0,_ZN7testing8internal14DefaultPrintToIiEEvNS0_15WrapPrinterTypeILNS0_18DefaultPrinterTypeE3EEERKT_PSo
FNDA:0,_ZN7testing8internal7PrintToIfEEvRKT_PSo
FNDA:0,_ZN7testing8internal7PrintToImEEvRKT_PSo
FNDA:0,_ZN7testing8internal7PrintToIiEEvRKT_PSo
FNDA:0,_ZN7testing8internal16UniversalPrinterIfE5PrintERKfPSo
FNDA:0,_ZN7testing8internal16UniversalPrinterImE5PrintERKmPSo
FNDA:0,_ZN7testing8internal16UniversalPrinterIiE5PrintERKiPSo
FNDA:0,_ZN7testing8internal21UniversalTersePrinterIfE5PrintERKfPSo
FNDA:0,_ZN7testing8internal21UniversalTersePrinterImE5PrintERKmPSo
FNDA:0,_ZN7testing8internal21UniversalTersePrinterIiE5PrintERKiPSo
FNDA:0,_ZN7testing8internal14UniversalPrintIfEEvRKT_PSo
FNDA:0,_ZN7testing8internal14UniversalPrintImEEvRKT_PSo
FNDA:0,_ZN7testing8internal14UniversalPrintIiEEvRKT_PSo
FNDA:0,_ZN7testing13PrintToStringIfEESsRKT_
FNDA:0,_ZN7testing13PrintToStringImEESsRKT_
FNDA:0,_ZN7testing13PrintToStringIiEESsRKT_
FNF:31
FNH:0
DA:222,0
DA:249,0
DA:250,0
DA:275,0
DA:276,0
DA:349,0
DA:351,0
DA:442,0
DA:444,0
DA:445,0
DA:459,0
DA:481,0
DA:493,0
DA:494,0
DA:714,0
DA:723,0
DA:724,0
DA:799,0
DA:800,0
DA:801,0
DA:868,0
DA:872,0
DA:873,0
DA:996,0
DA:997,0
DA:998,0
DA:999,0
LF:27
LH:0
end_of_record
SF:/home/ruslan/Facultad/Algo1 2017/TPI2017/TPIalgo1/salaDeReuniones_TPI/src/lib/googletest-master/googletest/include/gtest/gtest.h
FN:256,_ZN7testing15AssertionResultD2Ev
FN:288,_ZNK7testing15AssertionResultcvbEv
FN:297,_ZNK7testing15AssertionResult7messageEv
FN:302,_ZNK7testing15AssertionResult15failure_messageEv
FN:389,_ZN7testing4Test13SetUpTestCaseEv
FN:397,_ZN7testing4Test16TearDownTestCaseEv
FN:474,_ZN7testing4Test5SetupEv
FN:1375,_ZN7testing8internal18CmpHelperEQFailureIfiEENS_15AssertionResultEPKcS4_RKT_RKT0_
FN:1375,_ZN7testing8internal18CmpHelperEQFailureIiiEENS_15AssertionResultEPKcS4_RKT_RKT0_
FN:1375,_ZN7testing8internal18CmpHelperEQFailureIimEENS_15AssertionResultEPKcS4_RKT_RKT0_
FN:1375,_ZN7testing8internal18CmpHelperEQFailureImiEENS_15AssertionResultEPKcS4_RKT_RKT0_
FN:1387,_ZN7testing8internal11CmpHelperEQImiEENS_15AssertionResultEPKcS4_RKT_RKT0_
FN:1387,_ZN7testing8internal11CmpHelperEQIfiEENS_15AssertionResultEPKcS4_RKT_RKT0_
FN:1387,_ZN7testing8internal11CmpHelperEQIiiEENS_15AssertionResultEPKcS4_RKT_RKT0_
FN:1387,_ZN7testing8internal11CmpHelperEQIimEENS_15AssertionResultEPKcS4_RKT_RKT0_
FN:1417,_ZN7testing8internal8EqHelperILb0EE7CompareIfiEENS_15AssertionResultEPKcS6_RKT_RKT0_
FN:1417,_ZN7testing8internal8EqHelperILb0EE7CompareImiEENS_15AssertionResultEPKcS6_RKT_RKT0_
FN:1417,_ZN7testing8internal8EqHelperILb0EE7CompareIimEENS_15AssertionResultEPKcS6_RKT_RKT0_
FN:1417,_ZN7testing8internal8EqHelperILb0EE7CompareIiiEENS_15AssertionResultEPKcS6_RKT_RKT0_
FNDA:0,_ZN7testing15AssertionResultD2Ev
FNDA:0,_ZNK7testing15AssertionResultcvbEv
FNDA:0,_ZNK7testing15AssertionResult7messageEv
FNDA:0,_ZNK7testing15AssertionResult15failure_messageEv
FNDA:0,_ZN7testing4Test13SetUpTestCaseEv
FNDA:0,_ZN7testing4Test16TearDownTestCaseEv
FNDA:0,_ZN7testing4Test5SetupEv
FNDA:0,_ZN7testing8internal18CmpHelperEQFailureImiEENS_15AssertionResultEPKcS4_RKT_RKT0_
FNDA:0,_ZN7testing8internal18CmpHelperEQFailureIfiEENS_15AssertionResultEPKcS4_RKT_RKT0_
FNDA:0,_ZN7testing8internal18CmpHelperEQFailureIiiEENS_15AssertionResultEPKcS4_RKT_RKT0_
FNDA:0,_ZN7testing8internal18CmpHelperEQFailureIimEENS_15AssertionResultEPKcS4_RKT_RKT0_
FNDA:1,_ZN7testing8internal11CmpHelperEQImiEENS_15AssertionResultEPKcS4_RKT_RKT0_
FNDA:2,_ZN7testing8internal11CmpHelperEQIfiEENS_15AssertionResultEPKcS4_RKT_RKT0_
FNDA:0,_ZN7testing8internal11CmpHelperEQIiiEENS_15AssertionResultEPKcS4_RKT_RKT0_
FNDA:2,_ZN7testing8internal11CmpHelperEQIimEENS_15AssertionResultEPKcS4_RKT_RKT0_
FNDA:1,_ZN7testing8internal8EqHelperILb0EE7CompareImiEENS_15AssertionResultEPKcS6_RKT_RKT0_
FNDA:2,_ZN7testing8internal8EqHelperILb0EE7CompareIfiEENS_15AssertionResultEPKcS6_RKT_RKT0_
FNDA:0,_ZN7testing8internal8EqHelperILb0EE7CompareIiiEENS_15AssertionResultEPKcS6_RKT_RKT0_
FNDA:2,_ZN7testing8internal8EqHelperILb0EE7CompareIimEENS_15AssertionResultEPKcS6_RKT_RKT0_
FNF:19
FNH:6
DA:256,0
DA:288,0
DA:297,0
DA:298,0
DA:302,0
DA:389,0
DA:397,0
DA:474,0
DA:1375,0
DA:1382,0
DA:1387,5
DA:1392,5
DA:1393,5
DA:1397,0
DA:1417,5
DA:1421,5
LF:16
LH:5
end_of_record
SF:/home/ruslan/Facultad/Algo1 2017/TPI2017/TPIalgo1/salaDeReuniones_TPI/src/lib/googletest-master/googletest/include/gtest/internal/gtest-internal.h
FN:466,_ZN7testing8internal15TestFactoryBaseD2Ev
FN:466,_ZN7testing8internal15TestFactoryBaseD0Ev
FN:473,_ZN7testing8internal15TestFactoryBaseC2Ev
FN:482,_ZN7testing8internal15TestFactoryImplI36distanciasTEST_subaudioLongitud_TestED2Ev
FN:482,_ZN7testing8internal15TestFactoryImplI32distanciasTEST_estadisticos_TestED0Ev
FN:482,_ZN7testing8internal15TestFactoryImplI28distanciasTEST_leerSala_TestEC2Ev
FN:482,_ZN7testing8internal15TestFactoryImplI32distanciasTEST_estadisticos_TestED2Ev
FN:482,_ZN7testing8internal15TestFactoryImplI33distanciasTEST_estadisticos2_TestED0Ev
FN:482,_ZN7testing8internal15TestFactoryImplI37distanciasTEST_subaudioContenido_TestED2Ev
FN:482,_ZN7testing8internal15TestFactoryImplI28distanciasTEST_testBEEP_TestED0Ev
FN:482,_ZN7testing8internal15TestFactoryImplI36distanciasTEST_subaudioLongitud_TestED0Ev
FN:482,_ZN7testing8internal15TestFactoryImplI32distanciasTEST_lecturaAudio_TestED0Ev
FN:482,_ZN7testing8internal15TestFactoryImplI37distanciasTEST_subaudioContenido_TestED0Ev
FN:482,_ZN7testing8internal15TestFactoryImplI32distanciasTEST_lecturaAudio_TestED2Ev
FN:482,_ZN7testing8internal15TestFactoryImplI28distanciasTEST_leerSala_TestED2Ev
FN:482,_ZN7testing8internal15TestFactoryImplI37distanciasTEST_subaudioContenido_TestEC2Ev
FN:482,_ZN7testing8internal15TestFactoryImplI32distanciasTEST_estadisticos_TestEC2Ev
FN:482,_ZN7testing8internal15TestFactoryImplI28distanciasTEST_testBEEP_TestED2Ev
FN:482,_ZN7testing8internal15TestFactoryImplI33distanciasTEST_estadisticos2_TestED2Ev
FN:482,_ZN7testing8internal15TestFactoryImplI33distanciasTEST_estadisticos2_TestEC2Ev
FN:482,_ZN7testing8internal15TestFactoryImplI28distanciasTEST_leerSala_TestED0Ev
FN:482,_ZN7testing8internal15TestFactoryImplI36distanciasTEST_subaudioLongitud_TestEC2Ev
FN:482,_ZN7testing8internal15TestFactoryImplI28distanciasTEST_testBEEP_TestEC2Ev
FN:482,_ZN7testing8internal15TestFactoryImplI32distanciasTEST_lecturaAudio_TestEC2Ev
FN:484,_ZN7testing8internal15TestFactoryImplI33distanciasTEST_estadisticos2_TestE10CreateTestEv
FN:484,_ZN7testing8internal15TestFactoryImplI37distanciasTEST_subaudioContenido_TestE10CreateTestEv
FN:484,_ZN7testing8internal15TestFactoryImplI32distanciasTEST_lecturaAudio_TestE10CreateTestEv
FN:484,_ZN7testing8internal15TestFactoryImplI28distanciasTEST_testBEEP_TestE10CreateTestEv
FN:484,_ZN7testing8internal15TestFactoryImplI28distanciasTEST_leerSala_TestE10CreateTestEv
FN:484,_ZN7testing8internal15TestFactoryImplI36distanciasTEST_subaudioLongitud_TestE10CreateTestEv
FN:484,_ZN7testing8internal15TestFactoryImplI32distanciasTEST_estadisticos_TestE10CreateTestEv
FN:504,_ZN7testing8internal12CodeLocationD2Ev
FN:505,_ZN7testing8internal12CodeLocationC2ERKSsi
FNDA:0,_ZN7testing8internal15TestFactoryBaseD0Ev
FNDA:0,_ZN7testing8internal15TestFactoryBaseD2Ev
FNDA:0,_ZN7testing8internal15TestFactoryBaseC2Ev
FNDA:1,_ZN7testing8internal15TestFactoryImplI36distanciasTEST_subaudioLongitud_TestED0Ev
FNDA:1,_ZN7testing8internal15TestFactoryImplI36distanciasTEST_subaudioLongitud_TestED2Ev
FNDA:1,_ZN7testing8internal15TestFactoryImplI37distanciasTEST_subaudioContenido_TestED0Ev
FNDA:1,_ZN7testing8internal15TestFactoryImplI37distanciasTEST_subaudioContenido_TestED2Ev
FNDA:1,_ZN7testing8internal15TestFactoryImplI32distanciasTEST_estadisticos_TestED0Ev
FNDA:1,_ZN7testing8internal15TestFactoryImplI32distanciasTEST_estadisticos_TestED2Ev
FNDA:1,_ZN7testing8internal15TestFactoryImplI33distanciasTEST_estadisticos2_TestED0Ev
FNDA:1,_ZN7testing8internal15TestFactoryImplI33distanciasTEST_estadisticos2_TestED2Ev
FNDA:1,_ZN7testing8internal15TestFactoryImplI32distanciasTEST_lecturaAudio_TestED0Ev
FNDA:1,_ZN7testing8internal15TestFactoryImplI32distanciasTEST_lecturaAudio_TestED2Ev
FNDA:1,_ZN7testing8internal15TestFactoryImplI28distanciasTEST_testBEEP_TestED0Ev
FNDA:1,_ZN7testing8internal15TestFactoryImplI28distanciasTEST_testBEEP_TestED2Ev
FNDA:1,_ZN7testing8internal15TestFactoryImplI28distanciasTEST_leerSala_TestED0Ev
FNDA:1,_ZN7testing8internal15TestFactoryImplI28distanciasTEST_leerSala_TestED2Ev
FNDA:1,_ZN7testing8internal15TestFactoryImplI28distanciasTEST_leerSala_TestEC2Ev
FNDA:1,_ZN7testing8internal15TestFactoryImplI28distanciasTEST_testBEEP_TestEC2Ev
FNDA:1,_ZN7testing8internal15TestFactoryImplI32distanciasTEST_lecturaAudio_TestEC2Ev
FNDA:1,_ZN7testing8internal15TestFactoryImplI33distanciasTEST_estadisticos2_TestEC2Ev
FNDA:1,_ZN7testing8internal15TestFactoryImplI32distanciasTEST_estadisticos_TestEC2Ev
FNDA:1,_ZN7testing8internal15TestFactoryImplI37distanciasTEST_subaudioContenido_TestEC2Ev
FNDA:1,_ZN7testing8internal15TestFactoryImplI36distanciasTEST_subaudioLongitud_TestEC2Ev
FNDA:1,_ZN7testing8internal15TestFactoryImplI36distanciasTEST_subaudioLongitud_TestE10CreateTestEv
FNDA:1,_ZN7testing8internal15TestFactoryImplI37distanciasTEST_subaudioContenido_TestE10CreateTestEv
FNDA:1,_ZN7testing8internal15TestFactoryImplI32distanciasTEST_estadisticos_TestE10CreateTestEv
FNDA:1,_ZN7testing8internal15TestFactoryImplI33distanciasTEST_estadisticos2_TestE10CreateTestEv
FNDA:1,_ZN7testing8internal15TestFactoryImplI32distanciasTEST_lecturaAudio_TestE10CreateTestEv
FNDA:1,_ZN7testing8internal15TestFactoryImplI28distanciasTEST_testBEEP_TestE10CreateTestEv
FNDA:1,_ZN7testing8internal15TestFactoryImplI28distanciasTEST_leerSala_TestE10CreateTestEv
FNDA:0,_ZN7testing8internal12CodeLocationD2Ev
FNDA:0,_ZN7testing8internal12CodeLocationC2ERKSsi
FNF:33
FNH:28
DA:466,0
DA:473,0
DA:482,21
DA:484,7
DA:504,0
DA:505,0
DA:506,0
LF:7
LH:2
end_of_record
SF:/home/ruslan/Facultad/Algo1 2017/TPI2017/TPIalgo1/salaDeReuniones_TPI/src/lib/googletest-master/googletest/include/gtest/internal/gtest-port.h
FN:1157,_ZN7testing8internal10scoped_ptrISt18basic_stringstreamIcSt11char_traitsIcESaIcEEED2Ev
FN:1157,_ZN7testing8internal10scoped_ptrISsED2Ev
FN:1160,_ZNK7testing8internal10scoped_ptrISsEptEv
FN:1161,_ZNK7testing8internal10scoped_ptrISsE3getEv
FN:1169,_ZN7testing8internal10scoped_ptrISt18basic_stringstreamIcSt11char_traitsIcESaIcEEE5resetEPS6_
FN:1169,_ZN7testing8internal10scoped_ptrISsE5resetEPSs
FNDA:0,_ZN7testing8internal10scoped_ptrISsED2Ev
FNDA:0,_ZN7testing8internal10scoped_ptrISt18basic_stringstreamIcSt11char_traitsIcESaIcEEED2Ev
FNDA:0,_ZNK7testing8internal10scoped_ptrISsEptEv
FNDA:0,_ZNK7testing8internal10scoped_ptrISsE3getEv
FNDA:0,_ZN7testing8internal10scoped_ptrISt18basic_stringstreamIcSt11char_traitsIcESaIcEEE5resetEPS6_
FNDA:0,_ZN7testing8internal10scoped_ptrISsE5resetEPSs
FNF:6
FNH:0
DA:1157,0
DA:1160,0
DA:1161,0
DA:1169,0
DA:1170,0
DA:1171,0
DA:1172,0
DA:1174,0
DA:1176,0
LF:9
LH:0
end_of_record
SF:/home/ruslan/Facultad/Algo1 2017/TPI2017/TPIalgo1/salaDeReuniones_TPI/src/tests/distanciasTEST.cpp
FN:8,_Z41__static_initialization_and_destruction_0ii
FN:8,_ZN36distanciasTEST_subaudioLongitud_TestD2Ev
FN:8,_ZN36distanciasTEST_subaudioLongitud_TestD0Ev
FN:8,_ZN36distanciasTEST_subaudioLongitud_TestC2Ev
FN:8,_ZN36distanciasTEST_subaudioLongitud_Test8TestBodyEv
FN:14,_ZN37distanciasTEST_subaudioContenido_Test8TestBodyEv
FN:14,_ZN37distanciasTEST_subaudioContenido_TestC2Ev
FN:14,_ZN37distanciasTEST_subaudioContenido_TestD0Ev
FN:14,_ZN37distanciasTEST_subaudioContenido_TestD2Ev
FN:22,_ZN32distanciasTEST_estadisticos_TestD2Ev
FN:22,_ZN32distanciasTEST_estadisticos_Test8TestBodyEv
FN:22,_ZN32distanciasTEST_estadisticos_TestC2Ev
FN:22,_ZN32distanciasTEST_estadisticos_TestD0Ev
FN:30,_ZN33distanciasTEST_estadisticos2_TestD0Ev
FN:30,_ZN33distanciasTEST_estadisticos2_TestD2Ev
FN:30,_ZN33distanciasTEST_estadisticos2_Test8TestBodyEv
FN:30,_ZN33distanciasTEST_estadisticos2_TestC2Ev
FN:39,_ZN32distanciasTEST_lecturaAudio_TestC2Ev
FN:39,_ZN32distanciasTEST_lecturaAudio_Test8TestBodyEv
FN:39,_ZN32distanciasTEST_lecturaAudio_TestD0Ev
FN:39,_ZN32distanciasTEST_lecturaAudio_TestD2Ev
FN:47,_ZN28distanciasTEST_testBEEP_TestD2Ev
FN:47,_ZN28distanciasTEST_testBEEP_Test8TestBodyEv
FN:47,_ZN28distanciasTEST_testBEEP_TestD0Ev
FN:47,_ZN28distanciasTEST_testBEEP_TestC2Ev
FN:74,_ZN28distanciasTEST_leerSala_Test8TestBodyEv
FN:74,_ZN28distanciasTEST_leerSala_TestC2Ev
FN:74,_ZN28distanciasTEST_leerSala_TestD0Ev
FN:74,_ZN28distanciasTEST_leerSala_TestD2Ev
FN:83,_GLOBAL__sub_I__ZN36distanciasTEST_subaudioLongitud_Test10test_info_E
FNDA:1,_ZN36distanciasTEST_subaudioLongitud_TestD0Ev
FNDA:1,_ZN36distanciasTEST_subaudioLongitud_TestD2Ev
FNDA:1,_ZN36distanciasTEST_subaudioLongitud_Test8TestBodyEv
FNDA:1,_ZN36distanciasTEST_subaudioLongitud_TestC2Ev
FNDA:1,_ZN37distanciasTEST_subaudioContenido_TestD0Ev
FNDA:1,_ZN37distanciasTEST_subaudioContenido_TestD2Ev
FNDA:1,_ZN37distanciasTEST_subaudioContenido_Test8TestBodyEv
FNDA:1,_ZN37distanciasTEST_subaudioContenido_TestC2Ev
FNDA:1,_ZN32distanciasTEST_estadisticos_TestD0Ev
FNDA:1,_ZN32distanciasTEST_estadisticos_TestD2Ev
FNDA:1,_ZN32distanciasTEST_estadisticos_Test8TestBodyEv
FNDA:1,_ZN32distanciasTEST_estadisticos_TestC2Ev
FNDA:1,_ZN33distanciasTEST_estadisticos2_TestD0Ev
FNDA:1,_ZN33distanciasTEST_estadisticos2_TestD2Ev
FNDA:1,_ZN33distanciasTEST_estadisticos2_Test8TestBodyEv
FNDA:1,_ZN33distanciasTEST_estadisticos2_TestC2Ev
FNDA:1,_ZN32distanciasTEST_lecturaAudio_TestD0Ev
FNDA:1,_ZN32distanciasTEST_lecturaAudio_TestD2Ev
FNDA:1,_ZN32distanciasTEST_lecturaAudio_Test8TestBodyEv
FNDA:1,_ZN32distanciasTEST_lecturaAudio_TestC2Ev
FNDA:1,_ZN28distanciasTEST_testBEEP_TestD0Ev
FNDA:1,_ZN28distanciasTEST_testBEEP_TestD2Ev
FNDA:1,_ZN28distanciasTEST_testBEEP_Test8TestBodyEv
FNDA:1,_ZN28distanciasTEST_testBEEP_TestC2Ev
FNDA:1,_ZN28distanciasTEST_leerSala_TestD0Ev
FNDA:1,_ZN28distanciasTEST_leerSala_TestD2Ev
FNDA:1,_ZN28distanciasTEST_leerSala_Test8TestBodyEv
FNDA:1,_ZN28distanciasTEST_leerSala_TestC2Ev
FNDA:1,_GLOBAL__sub_I__ZN36distanciasTEST_subaudioLongitud_Test10test_info_E
FNDA:1,_Z41__static_initialization_and_destruction_0ii
FNF:30
FNH:30
DA:8,5
DA:9,1
DA:10,2
DA:11,2
DA:12,1
DA:14,5
DA:15,1
DA:16,2
DA:17,2
DA:18,3
DA:19,3
DA:20,1
DA:22,5
DA:23,1
DA:25,1
DA:26,1
DA:27,1
DA:28,1
DA:30,5
DA:31,1
DA:33,1
DA:34,1
DA:35,1
DA:36,1
DA:39,5
DA:40,1
DA:42,2
DA:43,1
DA:44,2
DA:45,1
DA:47,5
DA:50,1
DA:54,2
DA:56,2
DA:57,2
DA:59,1
DA:60,1
DA:61,2
DA:63,2
DA:64,1
DA:66,1
DA:67,5
DA:68,4
DA:69,4
DA:71,2
DA:72,1
DA:74,5
DA:78,1
DA:80,2
DA:82,2
DA:83,4
LF:51
LH:51
end_of_record
SF:/usr/include/c++/4.8/bits/alloc_traits.h
FN:337,_ZNSt16allocator_traitsISaIiEE9_S_selectIKS0_EENSt9enable_ifIXntsrNS1_15__select_helperIT_EE5valueES6_E4typeERS6_
FN:337,_ZNSt16allocator_traitsISaISsEE9_S_selectIKS0_EENSt9enable_ifIXntsrNS1_15__select_helperIT_EE5valueES6_E4typeERS6_
FN:337,_ZNSt16allocator_traitsISaISt6vectorIiSaIiEEEE9_S_selectIKS3_EENSt9enable_ifIXntsrNS4_15__select_helperIT_EE5valueES9_E4typeERS9_
FN:427,_ZNSt16allocator_traitsISaISsEE37select_on_container_copy_constructionERKS0_
FN:427,_ZNSt16allocator_traitsISaIiEE37select_on_container_copy_constructionERKS0_
FN:427,_ZNSt16allocator_traitsISaISt6vectorIiSaIiEEEE37select_on_container_copy_constructionERKS3_
FN:459,_ZSt18__do_alloc_on_copyISaIfEEvRT_RKS1_St17integral_constantIbLb0EE
FN:463,_ZSt15__alloc_on_copyISaIfEEvRT_RKS1_
FNDA:0,_ZNSt16allocator_traitsISaISt6vectorIiSaIiEEEE9_S_selectIKS3_EENSt9enable_ifIXntsrNS4_15__select_helperIT_EE5valueES9_E4typeERS9_
FNDA:0,_ZNSt16allocator_traitsISaISsEE9_S_selectIKS0_EENSt9enable_ifIXntsrNS1_15__select_helperIT_EE5valueES6_E4typeERS6_
FNDA:0,_ZNSt16allocator_traitsISaIiEE9_S_selectIKS0_EENSt9enable_ifIXntsrNS1_15__select_helperIT_EE5valueES6_E4typeERS6_
FNDA:0,_ZNSt16allocator_traitsISaISt6vectorIiSaIiEEEE37select_on_container_copy_constructionERKS3_
FNDA:0,_ZNSt16allocator_traitsISaISsEE37select_on_container_copy_constructionERKS0_
FNDA:0,_ZNSt16allocator_traitsISaIiEE37select_on_container_copy_constructionERKS0_
FNDA:0,_ZSt18__do_alloc_on_copyISaIfEEvRT_RKS1_St17integral_constantIbLb0EE
FNDA:0,_ZSt15__alloc_on_copyISaIfEEvRT_RKS1_
FNF:8
FNH:0
DA:337,0
DA:338,0
DA:427,0
DA:428,0
DA:459,0
DA:460,0
DA:463,0
DA:467,0
DA:468,0
LF:9
LH:0
end_of_record
SF:/usr/include/c++/4.8/bits/allocator.h
FN:113,_ZNSaISsEC2Ev
FN:113,_ZNSaIiEC2Ev
FN:113,_ZNSaIfEC2Ev
FN:115,_ZNSaIiEC2ERKS_
FN:115,_ZNSaISsEC2ERKS_
FN:115,_ZNSaISt6vectorIiSaIiEEEC2ERKS2_
FN:121,_ZNSaIiED2Ev
FN:121,_ZNSaISsED2Ev
FN:121,_ZNSaISt6vectorIiSaIiEEED2Ev
FN:121,_ZNSaIfED2Ev
FN:133,_ZSteqIcEbRKSaIT_ES3_
FN:143,_ZStneIfEbRKSaIT_ES3_
FNDA:0,_ZNSaIfEC2Ev
FNDA:0,_ZNSaISsEC2Ev
FNDA:0,_ZNSaIiEC2Ev
FNDA:0,_ZNSaISt6vectorIiSaIiEEEC2ERKS2_
FNDA:0,_ZNSaISsEC2ERKS_
FNDA:0,_ZNSaIiEC2ERKS_
FNDA:0,_ZNSaIfED2Ev
FNDA:0,_ZNSaISt6vectorIiSaIiEEED2Ev
FNDA:0,_ZNSaISsED2Ev
FNDA:0,_ZNSaIiED2Ev
FNDA:0,_ZSteqIcEbRKSaIT_ES3_
FNDA:0,_ZStneIfEbRKSaIT_ES3_
FNF:12
FNH:0
DA:113,0
DA:115,0
DA:116,0
DA:121,0
DA:133,0
DA:134,0
DA:143,0
DA:144,0
LF:8
LH:0
end_of_record
SF:/usr/include/c++/4.8/bits/basic_ios.h
FN:46,_ZSt13__check_facetISt5ctypeIcEERKT_PS3_
FNDA:0,_ZSt13__check_facetISt5ctypeIcEERKT_PS3_
FNF:1
FNH:0
DA:46,0
DA:48,0
DA:49,0
DA:50,0
LF:4
LH:0
end_of_record
SF:/usr/include/c++/4.8/bits/basic_string.h
FN:272,_ZNSs12_Alloc_hiderD2Ev
FN:1721,_ZNSs16_S_construct_auxIPcEES0_T_S1_RKSaIcESt12__false_type
FN:1743,_ZNSs12_S_constructIPcEES0_T_S1_RKSaIcE
FNDA:0,_ZNSs12_Alloc_hiderD2Ev
FNDA:0,_ZNSs16_S_construct_auxIPcEES0_T_S1_RKSaIcESt12__false_type
FNDA:0,_ZNSs12_S_constructIPcEES0_T_S1_RKSaIcE
FNF:3
FNH:0
DA:272,0
DA:1721,0
DA:1725,0
DA:1743,0
DA:1746,0
LF:5
LH:0
end_of_record
SF:/usr/include/c++/4.8/bits/basic_string.tcc
FN:123,_ZNSs12_S_constructIPcEES0_T_S1_RKSaIcESt20forward_iterator_tag
FN:227,_ZNSsC2IPcEET_S1_RKSaIcE
FNDA:0,_ZNSs12_S_constructIPcEES0_T_S1_RKSaIcESt20forward_iterator_tag
FNDA:0,_ZNSsC2IPcEET_S1_RKSaIcE
FNF:2
FNH:0
DA:123,0
DA:128,0
DA:129,0
DA:132,0
DA:133,0
DA:136,0
DA:138,0
DA:140,0
DA:141,=====
DA:143,=====
DA:144,=====
DA:146,0
DA:147,0
DA:227,0
DA:229,0
DA:230,0
LF:16
LH:0
end_of_record
SF:/usr/include/c++/4.8/bits/char_traits.h
FN:242,_ZNSt11char_traitsIcE6assignERcRKc
FN:258,_ZNSt11char_traitsIcE6lengthEPKc
FN:270,_ZNSt11char_traitsIcE4copyEPcPKcm
FNDA:0,_ZNSt11char_traitsIcE6assignERcRKc
FNDA:0,_ZNSt11char_traitsIcE6lengthEPKc
FNDA:0,_ZNSt11char_traitsIcE4copyEPcPKcm
FNF:3
FNH:0
DA:242,0
DA:243,0
DA:258,0
DA:259,0
DA:270,0
DA:271,0
LF:6
LH:0
end_of_record
SF:/usr/include/c++/4.8/bits/ios_base.h
FN:123,_ZStorSt13_Ios_OpenmodeS_
FN:163,_ZStorSt12_Ios_IostateS_
FNDA:0,_ZStorSt13_Ios_OpenmodeS_
FNDA:0,_ZStorSt12_Ios_IostateS_
FNF:2
FNH:0
DA:123,0
DA:124,0
DA:163,0
DA:164,0
LF:4
LH:0
end_of_record
SF:/usr/include/c++/4.8/bits/locale_facets.h
FN:865,_ZNKSt5ctypeIcE5widenEc
FNDA:0,_ZNKSt5ctypeIcE5widenEc
FNF:1
FNH:0
DA:865,0
DA:867,0
DA:868,0
DA:869,0
DA:870,0
LF:5
LH:0
end_of_record
SF:/usr/include/c++/4.8/bits/move.h
FN:47,_ZSt11__addressofISsEPT_RS0_
FN:47,_ZSt11__addressofISt6vectorIiSaIiEEEPT_RS3_
FN:76,_ZSt7forwardIRKSt6vectorIiSaIiEEEOT_RNSt16remove_referenceIS5_E4typeE
FN:76,_ZSt7forwardIRKSsEOT_RNSt16remove_referenceIS2_E4typeE
FNDA:0,_ZSt11__addressofISt6vectorIiSaIiEEEPT_RS3_
FNDA:0,_ZSt11__addressofISsEPT_RS0_
FNDA:0,_ZSt7forwardIRKSt6vectorIiSaIiEEEOT_RNSt16remove_referenceIS5_E4typeE
FNDA:0,_ZSt7forwardIRKSsEOT_RNSt16remove_referenceIS2_E4typeE
FNF:4
FNH:0
DA:47,0
DA:50,0
DA:76,0
DA:77,0
LF:4
LH:0
end_of_record
SF:/usr/include/c++/4.8/bits/stl_algobase.h
FN:277,_ZSt12__niter_baseIN9__gnu_cxx17__normal_iteratorIPfSt6vectorIfSaIfEEEEENSt11_Niter_baseIT_E13iterator_typeES8_
FN:277,_ZSt12__niter_baseIN9__gnu_cxx17__normal_iteratorIPKfSt6vectorIfSaIfEEEEENSt11_Niter_baseIT_E13iterator_typeES9_
FN:277,_ZSt12__niter_baseIPfENSt11_Niter_baseIT_E13iterator_typeES2_
FN:277,_ZSt12__niter_baseIPKiENSt11_Niter_baseIT_E13iterator_typeES3_
FN:277,_ZSt12__niter_baseIN9__gnu_cxx17__normal_iteratorIPKiSt6vectorIiSaIiEEEEENSt11_Niter_baseIT_E13iterator_typeES9_
FN:277,_ZSt12__niter_baseIPiENSt11_Niter_baseIT_E13iterator_typeES2_
FN:288,_ZSt12__miter_baseIN9__gnu_cxx17__normal_iteratorIPKfSt6vectorIfSaIfEEEEENSt11_Miter_baseIT_E13iterator_typeES9_
FN:288,_ZSt12__miter_baseIN9__gnu_cxx17__normal_iteratorIPKiSt6vectorIiSaIiEEEEENSt11_Miter_baseIT_E13iterator_typeES9_
FN:288,_ZSt12__miter_baseIPfENSt11_Miter_baseIT_E13iterator_typeES2_
FN:288,_ZSt12__miter_baseIPKiENSt11_Miter_baseIT_E13iterator_typeES3_
FN:368,_ZNSt11__copy_moveILb0ELb1ESt26random_access_iterator_tagE8__copy_mIiEEPT_PKS3_S6_S4_
FN:368,_ZNSt11__copy_moveILb0ELb1ESt26random_access_iterator_tagE8__copy_mIfEEPT_PKS3_S6_S4_
FN:379,_ZSt13__copy_move_aILb0EPKfPfET1_T0_S4_S3_
FN:379,_ZSt13__copy_move_aILb0EPfS0_ET1_T0_S2_S1_
FN:379,_ZSt13__copy_move_aILb0EPKiPiET1_T0_S4_S3_
FN:424,_ZSt14__copy_move_a2ILb0EN9__gnu_cxx17__normal_iteratorIPKiSt6vectorIiSaIiEEEEPiET1_T0_SA_S9_
FN:424,_ZSt14__copy_move_a2ILb0EN9__gnu_cxx17__normal_iteratorIPKfSt6vectorIfSaIfEEEEPfET1_T0_SA_S9_
FN:424,_ZSt14__copy_move_a2ILb0EPfS0_ET1_T0_S2_S1_
FN:424,_ZSt14__copy_move_a2ILb0EPKiPiET1_T0_S4_S3_
FN:424,_ZSt14__copy_move_a2ILb0EN9__gnu_cxx17__normal_iteratorIPKfSt6vectorIfSaIfEEEENS1_IPfS6_EEET1_T0_SB_SA_
FN:450,_ZSt4copyIPfS0_ET0_T_S2_S1_
FN:450,_ZSt4copyIN9__gnu_cxx17__normal_iteratorIPKfSt6vectorIfSaIfEEEEPfET0_T_SA_S9_
FN:450,_ZSt4copyIPKiPiET0_T_S4_S3_
FN:450,_ZSt4copyIN9__gnu_cxx17__normal_iteratorIPKfSt6vectorIfSaIfEEEENS1_IPfS6_EEET0_T_SB_SA_
FN:450,_ZSt4copyIN9__gnu_cxx17__normal_iteratorIPKiSt6vectorIiSaIiEEEEPiET0_T_SA_S9_
FNDA:0,_ZSt12__niter_baseIPKiENSt11_Niter_baseIT_E13iterator_typeES3_
FNDA:0,_ZSt12__niter_baseIPiENSt11_Niter_baseIT_E13iterator_typeES2_
FNDA:0,_ZSt12__niter_baseIN9__gnu_cxx17__normal_iteratorIPKiSt6vectorIiSaIiEEEEENSt11_Niter_baseIT_E13iterator_typeES9_
FNDA:0,_ZSt12__niter_baseIPfENSt11_Niter_baseIT_E13iterator_typeES2_
FNDA:0,_ZSt12__niter_baseIN9__gnu_cxx17__normal_iteratorIPfSt6vectorIfSaIfEEEEENSt11_Niter_baseIT_E13iterator_typeES8_
FNDA:0,_ZSt12__niter_baseIN9__gnu_cxx17__normal_iteratorIPKfSt6vectorIfSaIfEEEEENSt11_Niter_baseIT_E13iterator_typeES9_
FNDA:0,_ZSt12__miter_baseIPKiENSt11_Miter_baseIT_E13iterator_typeES3_
FNDA:0,_ZSt12__miter_baseIN9__gnu_cxx17__normal_iteratorIPKiSt6vectorIiSaIiEEEEENSt11_Miter_baseIT_E13iterator_typeES9_
FNDA:0,_ZSt12__miter_baseIPfENSt11_Miter_baseIT_E13iterator_typeES2_
FNDA:0,_ZSt12__miter_baseIN9__gnu_cxx17__normal_iteratorIPKfSt6vectorIfSaIfEEEEENSt11_Miter_baseIT_E13iterator_typeES9_
FNDA:0,_ZNSt11__copy_moveILb0ELb1ESt26random_access_iterator_tagE8__copy_mIiEEPT_PKS3_S6_S4_
FNDA:0,_ZNSt11__copy_moveILb0ELb1ESt26random_access_iterator_tagE8__copy_mIfEEPT_PKS3_S6_S4_
FNDA:0,_ZSt13__copy_move_aILb0EPKiPiET1_T0_S4_S3_
FNDA:0,_ZSt13__copy_move_aILb0EPfS0_ET1_T0_S2_S1_
FNDA:0,_ZSt13__copy_move_aILb0EPKfPfET1_T0_S4_S3_
FNDA:0,_ZSt14__copy_move_a2ILb0EN9__gnu_cxx17__normal_iteratorIPKfSt6vectorIfSaIfEEEEPfET1_T0_SA_S9_
FNDA:0,_ZSt14__copy_move_a2ILb0EPKiPiET1_T0_S4_S3_
FNDA:0,_ZSt14__copy_move_a2ILb0EN9__gnu_cxx17__normal_iteratorIPKiSt6vectorIiSaIiEEEEPiET1_T0_SA_S9_
FNDA:0,_ZSt14__copy_move_a2ILb0EPfS0_ET1_T0_S2_S1_
FNDA:0,_ZSt14__copy_move_a2ILb0EN9__gnu_cxx17__normal_iteratorIPKfSt6vectorIfSaIfEEEENS1_IPfS6_EEET1_T0_SB_SA_
FNDA:0,_ZSt4copyIN9__gnu_cxx17__normal_iteratorIPKfSt6vectorIfSaIfEEEEPfET0_T_SA_S9_
FNDA:0,_ZSt4copyIPKiPiET0_T_S4_S3_
FNDA:0,_ZSt4copyIN9__gnu_cxx17__normal_iteratorIPKiSt6vectorIiSaIiEEEEPiET0_T_SA_S9_
FNDA:0,_ZSt4copyIPfS0_ET0_T_S2_S1_
FNDA:0,_ZSt4copyIN9__gnu_cxx17__normal_iteratorIPKfSt6vectorIfSaIfEEEENS1_IPfS6_EEET0_T_SB_SA_
FNF:25
FNH:0
DA:277,0
DA:278,0
DA:288,0
DA:289,0
DA:368,0
DA:370,0
DA:371,0
DA:372,0
DA:373,0
DA:379,0
DA:387,0
DA:390,0
DA:424,0
DA:428,0
DA:450,0
DA:460,0
LF:16
LH:0
end_of_record
SF:/usr/include/c++/4.8/bits/stl_construct.h
FN:74,_ZSt10_ConstructISsIRKSsEEvPT_DpOT0_
FN:74,_ZSt10_ConstructISt6vectorIiSaIiEEIRKS2_EEvPT_DpOT0_
FN:92,_ZSt8_DestroyISt6vectorIiSaIiEEEvPT_
FN:92,_ZSt8_DestroyISsEvPT_
FN:100,_ZNSt12_Destroy_auxILb0EE9__destroyIPSt6vectorIiSaIiEEEEvT_S6_
FN:100,_ZNSt12_Destroy_auxILb0EE9__destroyIPSsEEvT_S3_
FN:112,_ZNSt12_Destroy_auxILb1EE9__destroyIN9__gnu_cxx17__normal_iteratorIPfSt6vectorIfSaIfEEEEEEvT_S9_
FN:112,_ZNSt12_Destroy_auxILb1EE9__destroyIPiEEvT_S3_
FN:112,_ZNSt12_Destroy_auxILb1EE9__destroyIPfEEvT_S3_
FN:122,_ZSt8_DestroyIN9__gnu_cxx17__normal_iteratorIPfSt6vectorIfSaIfEEEEEvT_S7_
FN:122,_ZSt8_DestroyIPSt6vectorIiSaIiEEEvT_S4_
FN:122,_ZSt8_DestroyIPfEvT_S1_
FN:122,_ZSt8_DestroyIPiEvT_S1_
FN:122,_ZSt8_DestroyIPSsEvT_S1_
FN:148,_ZSt8_DestroyIPiiEvT_S1_RSaIT0_E
FN:148,_ZSt8_DestroyIPSt6vectorIiSaIiEES2_EvT_S4_RSaIT0_E
FN:148,_ZSt8_DestroyIN9__gnu_cxx17__normal_iteratorIPfSt6vectorIfSaIfEEEEfEvT_S7_RSaIT0_E
FN:148,_ZSt8_DestroyIPffEvT_S1_RSaIT0_E
FN:148,_ZSt8_DestroyIPSsSsEvT_S1_RSaIT0_E
FNDA:0,_ZSt10_ConstructISt6vectorIiSaIiEEIRKS2_EEvPT_DpOT0_
FNDA:0,_ZSt10_ConstructISsIRKSsEEvPT_DpOT0_
FNDA:0,_ZSt8_DestroyISt6vectorIiSaIiEEEvPT_
FNDA:0,_ZSt8_DestroyISsEvPT_
FNDA:0,_ZNSt12_Destroy_auxILb0EE9__destroyIPSt6vectorIiSaIiEEEEvT_S6_
FNDA:0,_ZNSt12_Destroy_auxILb0EE9__destroyIPSsEEvT_S3_
FNDA:0,_ZNSt12_Destroy_auxILb1EE9__destroyIN9__gnu_cxx17__normal_iteratorIPfSt6vectorIfSaIfEEEEEEvT_S9_
FNDA:0,_ZNSt12_Destroy_auxILb1EE9__destroyIPfEEvT_S3_
FNDA:0,_ZNSt12_Destroy_auxILb1EE9__destroyIPiEEvT_S3_
FNDA:0,_ZSt8_DestroyIN9__gnu_cxx17__normal_iteratorIPfSt6vectorIfSaIfEEEEEvT_S7_
FNDA:0,_ZSt8_DestroyIPSt6vectorIiSaIiEEEvT_S4_
FNDA:0,_ZSt8_DestroyIPSsEvT_S1_
FNDA:0,_ZSt8_DestroyIPfEvT_S1_
FNDA:0,_ZSt8_DestroyIPiEvT_S1_
FNDA:0,_ZSt8_DestroyIN9__gnu_cxx17__normal_iteratorIPfSt6vectorIfSaIfEEEEfEvT_S7_RSaIT0_E
FNDA:0,_ZSt8_DestroyIPSt6vectorIiSaIiEES2_EvT_S4_RSaIT0_E
FNDA:0,_ZSt8_DestroyIPSsSsEvT_S1_RSaIT0_E
FNDA:0,_ZSt8_DestroyIPffEvT_S1_RSaIT0_E
FNDA:0,_ZSt8_DestroyIPiiEvT_S1_RSaIT0_E
FNF:19
FNH:0
DA:74,0
DA:75,0
DA:92,0
DA:93,0
DA:100,0
DA:102,0
DA:103,0
DA:104,0
DA:112,0
DA:122,0
DA:126,0
DA:128,0
DA:148,0
DA:151,0
DA:152,0
LF:15
LH:0
end_of_record
SF:/usr/include/c++/4.8/bits/stl_iterator.h
FN:726,_ZN9__gnu_cxx17__normal_iteratorIPKiSt6vectorIiSaIiEEEC2ERKS2_
FN:726,_ZN9__gnu_cxx17__normal_iteratorIPKSsSt6vectorISsSaISsEEEC2ERKS2_
FN:726,_ZN9__gnu_cxx17__normal_iteratorIPKSt6vectorIiSaIiEES1_IS3_SaIS3_EEEC2ERKS5_
FN:726,_ZN9__gnu_cxx17__normal_iteratorIPfSt6vectorIfSaIfEEEC2ERKS1_
FN:726,_ZN9__gnu_cxx17__normal_iteratorIPKfSt6vectorIfSaIfEEEC2ERKS2_
FN:738,_ZNK9__gnu_cxx17__normal_iteratorIPKSsSt6vectorISsSaISsEEEdeEv
FN:738,_ZNK9__gnu_cxx17__normal_iteratorIPKSt6vectorIiSaIiEES1_IS3_SaIS3_EEEdeEv
FN:746,_ZN9__gnu_cxx17__normal_iteratorIPKSt6vectorIiSaIiEES1_IS3_SaIS3_EEEppEv
FN:746,_ZN9__gnu_cxx17__normal_iteratorIPKSsSt6vectorISsSaISsEEEppEv
FN:790,_ZNK9__gnu_cxx17__normal_iteratorIPKSt6vectorIiSaIiEES1_IS3_SaIS3_EEE4baseEv
FN:790,_ZNK9__gnu_cxx17__normal_iteratorIPfSt6vectorIfSaIfEEE4baseEv
FN:790,_ZNK9__gnu_cxx17__normal_iteratorIPKiSt6vectorIiSaIiEEE4baseEv
FN:790,_ZNK9__gnu_cxx17__normal_iteratorIPKSsSt6vectorISsSaISsEEE4baseEv
FN:790,_ZNK9__gnu_cxx17__normal_iteratorIPKfSt6vectorIfSaIfEEE4baseEv
FN:823,_ZN9__gnu_cxxneIPKSt6vectorIiSaIiEES1_IS3_SaIS3_EEEEbRKNS_17__normal_iteratorIT_T0_EESD_
FN:823,_ZN9__gnu_cxxneIPKSsSt6vectorISsSaISsEEEEbRKNS_17__normal_iteratorIT_T0_EESB_
FNDA:0,_ZN9__gnu_cxx17__normal_iteratorIPfSt6vectorIfSaIfEEEC2ERKS1_
FNDA:0,_ZN9__gnu_cxx17__normal_iteratorIPKfSt6vectorIfSaIfEEEC2ERKS2_
FNDA:0,_ZN9__gnu_cxx17__normal_iteratorIPKSt6vectorIiSaIiEES1_IS3_SaIS3_EEEC2ERKS5_
FNDA:0,_ZN9__gnu_cxx17__normal_iteratorIPKSsSt6vectorISsSaISsEEEC2ERKS2_
FNDA:0,_ZN9__gnu_cxx17__normal_iteratorIPKiSt6vectorIiSaIiEEEC2ERKS2_
FNDA:0,_ZNK9__gnu_cxx17__normal_iteratorIPKSt6vectorIiSaIiEES1_IS3_SaIS3_EEEdeEv
FNDA:0,_ZNK9__gnu_cxx17__normal_iteratorIPKSsSt6vectorISsSaISsEEEdeEv
FNDA:0,_ZN9__gnu_cxx17__normal_iteratorIPKSt6vectorIiSaIiEES1_IS3_SaIS3_EEEppEv
FNDA:0,_ZN9__gnu_cxx17__normal_iteratorIPKSsSt6vectorISsSaISsEEEppEv
FNDA:0,_ZNK9__gnu_cxx17__normal_iteratorIPKiSt6vectorIiSaIiEEE4baseEv
FNDA:0,_ZNK9__gnu_cxx17__normal_iteratorIPfSt6vectorIfSaIfEEE4baseEv
FNDA:0,_ZNK9__gnu_cxx17__normal_iteratorIPKfSt6vectorIfSaIfEEE4baseEv
FNDA:0,_ZNK9__gnu_cxx17__normal_iteratorIPKSt6vectorIiSaIiEES1_IS3_SaIS3_EEE4baseEv
FNDA:0,_ZNK9__gnu_cxx17__normal_iteratorIPKSsSt6vectorISsSaISsEEE4baseEv
FNDA:0,_ZN9__gnu_cxxneIPKSt6vectorIiSaIiEES1_IS3_SaIS3_EEEEbRKNS_17__normal_iteratorIT_T0_EESD_
FNDA:0,_ZN9__gnu_cxxneIPKSsSt6vectorISsSaISsEEEEbRKNS_17__normal_iteratorIT_T0_EESB_
FNF:16
FNH:0
DA:726,0
DA:738,0
DA:739,0
DA:746,0
DA:748,0
DA:749,0
DA:790,0
DA:791,0
DA:823,0
DA:825,0
LF:10
LH:0
end_of_record
SF:/usr/include/c++/4.8/bits/stl_iterator_base_funcs.h
FN:90,_ZSt10__distanceIPcENSt15iterator_traitsIT_E15difference_typeES2_S2_St26random_access_iterator_tag
FN:90,_ZSt10__distanceIPKiENSt15iterator_traitsIT_E15difference_typeES3_S3_St26random_access_iterator_tag
FN:90,_ZSt10__distanceIPKSsENSt15iterator_traitsIT_E15difference_typeES3_S3_St26random_access_iterator_tag
FN:114,_ZSt8distanceIPKSsENSt15iterator_traitsIT_E15difference_typeES3_S3_
FN:114,_ZSt8distanceIPKiENSt15iterator_traitsIT_E15difference_typeES3_S3_
FN:114,_ZSt8distanceIPcENSt15iterator_traitsIT_E15difference_typeES2_S2_
FNDA:0,_ZSt10__distanceIPcENSt15iterator_traitsIT_E15difference_typeES2_S2_St26random_access_iterator_tag
FNDA:0,_ZSt10__distanceIPKSsENSt15iterator_traitsIT_E15difference_typeES3_S3_St26random_access_iterator_tag
FNDA:0,_ZSt10__distanceIPKiENSt15iterator_traitsIT_E15difference_typeES3_S3_St26random_access_iterator_tag
FNDA:0,_ZSt8distanceIPcENSt15iterator_traitsIT_E15difference_typeES2_S2_
FNDA:0,_ZSt8distanceIPKSsENSt15iterator_traitsIT_E15difference_typeES3_S3_
FNDA:0,_ZSt8distanceIPKiENSt15iterator_traitsIT_E15difference_typeES3_S3_
FNF:6
FNH:0
DA:90,0
DA:96,0
DA:114,0
DA:118,0
LF:4
LH:0
end_of_record
SF:/usr/include/c++/4.8/bits/stl_iterator_base_types.h
FN:201,_ZSt19__iterator_categoryIPKiENSt15iterator_traitsIT_E17iterator_categoryERKS3_
FN:201,_ZSt19__iterator_categoryIPKSsENSt15iterator_traitsIT_E17iterator_categoryERKS3_
FN:201,_ZSt19__iterator_categoryIPcENSt15iterator_traitsIT_E17iterator_categoryERKS2_
FN:212,_ZNSt10_Iter_baseIPfLb0EE7_S_baseES0_
FN:212,_ZNSt10_Iter_baseIPiLb0EE7_S_baseES0_
FN:212,_ZNSt10_Iter_baseIPKiLb0EE7_S_baseES1_
FN:212,_ZNSt10_Iter_baseIN9__gnu_cxx17__normal_iteratorIPKfSt6vectorIfSaIfEEEELb0EE7_S_baseES7_
FN:212,_ZNSt10_Iter_baseIN9__gnu_cxx17__normal_iteratorIPKiSt6vectorIiSaIiEEEELb0EE7_S_baseES7_
FN:220,_ZNSt10_Iter_baseIN9__gnu_cxx17__normal_iteratorIPKiSt6vectorIiSaIiEEEELb1EE7_S_baseES7_
FN:220,_ZNSt10_Iter_baseIN9__gnu_cxx17__normal_iteratorIPKfSt6vectorIfSaIfEEEELb1EE7_S_baseES7_
FN:220,_ZNSt10_Iter_baseIN9__gnu_cxx17__normal_iteratorIPfSt6vectorIfSaIfEEEELb1EE7_S_baseES6_
FNDA:0,_ZSt19__iterator_categoryIPcENSt15iterator_traitsIT_E17iterator_categoryERKS2_
FNDA:0,_ZSt19__iterator_categoryIPKSsENSt15iterator_traitsIT_E17iterator_categoryERKS3_
FNDA:0,_ZSt19__iterator_categoryIPKiENSt15iterator_traitsIT_E17iterator_categoryERKS3_
FNDA:0,_ZNSt10_Iter_baseIPiLb0EE7_S_baseES0_
FNDA:0,_ZNSt10_Iter_baseIPKiLb0EE7_S_baseES1_
FNDA:0,_ZNSt10_Iter_baseIN9__gnu_cxx17__normal_iteratorIPKiSt6vectorIiSaIiEEEELb0EE7_S_baseES7_
FNDA:0,_ZNSt10_Iter_baseIPfLb0EE7_S_baseES0_
FNDA:0,_ZNSt10_Iter_baseIN9__gnu_cxx17__normal_iteratorIPKfSt6vectorIfSaIfEEEELb0EE7_S_baseES7_
FNDA:0,_ZNSt10_Iter_baseIN9__gnu_cxx17__normal_iteratorIPKiSt6vectorIiSaIiEEEELb1EE7_S_baseES7_
FNDA:0,_ZNSt10_Iter_baseIN9__gnu_cxx17__normal_iteratorIPfSt6vectorIfSaIfEEEELb1EE7_S_baseES6_
FNDA:0,_ZNSt10_Iter_baseIN9__gnu_cxx17__normal_iteratorIPKfSt6vectorIfSaIfEEEELb1EE7_S_baseES7_
FNF:11
FNH:0
DA:201,0
DA:202,0
DA:212,0
DA:213,0
DA:220,0
DA:221,0
LF:6
LH:0
end_of_record
SF:/usr/include/c++/4.8/bits/stl_uninitialized.h
FN:68,_ZNSt20__uninitialized_copyILb0EE13__uninit_copyIPKSsPSsEET0_T_S6_S5_
FN:68,_ZNSt20__uninitialized_copyILb0EE13__uninit_copyIN9__gnu_cxx17__normal_iteratorIPKSsSt6vectorISsSaISsEEEEPSsEET0_T_SC_SB_
FN:68,_ZNSt20__uninitialized_copyILb0EE13__uninit_copyIN9__gnu_cxx17__normal_iteratorIPKSt6vectorIiSaIiEES4_IS6_SaIS6_EEEEPS6_EET0_T_SE_SD_
FN:91,_ZNSt20__uninitialized_copyILb1EE13__uninit_copyIN9__gnu_cxx17__normal_iteratorIPKfSt6vectorIfSaIfEEEEPfEET0_T_SC_SB_
FN:91,_ZNSt20__uninitialized_copyILb1EE13__uninit_copyIN9__gnu_cxx17__normal_iteratorIPKiSt6vectorIiSaIiEEEEPiEET0_T_SC_SB_
FN:91,_ZNSt20__uninitialized_copyILb1EE13__uninit_copyIPKiPiEET0_T_S6_S5_
FN:91,_ZNSt20__uninitialized_copyILb1EE13__uninit_copyIPfS2_EET0_T_S4_S3_
FN:107,_ZSt18uninitialized_copyIN9__gnu_cxx17__normal_iteratorIPKSsSt6vectorISsSaISsEEEEPSsET0_T_SA_S9_
FN:107,_ZSt18uninitialized_copyIN9__gnu_cxx17__normal_iteratorIPKfSt6vectorIfSaIfEEEEPfET0_T_SA_S9_
FN:107,_ZSt18uninitialized_copyIN9__gnu_cxx17__normal_iteratorIPKSt6vectorIiSaIiEES2_IS4_SaIS4_EEEEPS4_ET0_T_SC_SB_
FN:107,_ZSt18uninitialized_copyIPfS0_ET0_T_S2_S1_
FN:107,_ZSt18uninitialized_copyIPKSsPSsET0_T_S4_S3_
FN:107,_ZSt18uninitialized_copyIPKiPiET0_T_S4_S3_
FN:107,_ZSt18uninitialized_copyIN9__gnu_cxx17__normal_iteratorIPKiSt6vectorIiSaIiEEEEPiET0_T_SA_S9_
FN:256,_ZSt22__uninitialized_copy_aIN9__gnu_cxx17__normal_iteratorIPKfSt6vectorIfSaIfEEEEPffET0_T_SA_S9_RSaIT1_E
FN:256,_ZSt22__uninitialized_copy_aIN9__gnu_cxx17__normal_iteratorIPKiSt6vectorIiSaIiEEEEPiiET0_T_SA_S9_RSaIT1_E
FN:256,_ZSt22__uninitialized_copy_aIPfS0_fET0_T_S2_S1_RSaIT1_E
FN:256,_ZSt22__uninitialized_copy_aIPKSsPSsSsET0_T_S4_S3_RSaIT1_E
FN:256,_ZSt22__uninitialized_copy_aIN9__gnu_cxx17__normal_iteratorIPKSsSt6vectorISsSaISsEEEEPSsSsET0_T_SA_S9_RSaIT1_E
FN:256,_ZSt22__uninitialized_copy_aIN9__gnu_cxx17__normal_iteratorIPKSt6vectorIiSaIiEES2_IS4_SaIS4_EEEEPS4_S4_ET0_T_SC_SB_RSaIT1_E
FN:256,_ZSt22__uninitialized_copy_aIPKiPiiET0_T_S4_S3_RSaIT1_E
FNDA:0,_ZNSt20__uninitialized_copyILb0EE13__uninit_copyIPKSsPSsEET0_T_S6_S5_
FNDA:0,_ZNSt20__uninitialized_copyILb0EE13__uninit_copyIN9__gnu_cxx17__normal_iteratorIPKSt6vectorIiSaIiEES4_IS6_SaIS6_EEEEPS6_EET0_T_SE_SD_
FNDA:0,_ZNSt20__uninitialized_copyILb0EE13__uninit_copyIN9__gnu_cxx17__normal_iteratorIPKSsSt6vectorISsSaISsEEEEPSsEET0_T_SC_SB_
FNDA:0,_ZNSt20__uninitialized_copyILb1EE13__uninit_copyIN9__gnu_cxx17__normal_iteratorIPKfSt6vectorIfSaIfEEEEPfEET0_T_SC_SB_
FNDA:0,_ZNSt20__uninitialized_copyILb1EE13__uninit_copyIPKiPiEET0_T_S6_S5_
FNDA:0,_ZNSt20__uninitialized_copyILb1EE13__uninit_copyIPfS2_EET0_T_S4_S3_
FNDA:0,_ZNSt20__uninitialized_copyILb1EE13__uninit_copyIN9__gnu_cxx17__normal_iteratorIPKiSt6vectorIiSaIiEEEEPiEET0_T_SC_SB_
FNDA:0,_ZSt18uninitialized_copyIN9__gnu_cxx17__normal_iteratorIPKfSt6vectorIfSaIfEEEEPfET0_T_SA_S9_
FNDA:0,_ZSt18uninitialized_copyIPKSsPSsET0_T_S4_S3_
FNDA:0,_ZSt18uninitialized_copyIPKiPiET0_T_S4_S3_
FNDA:0,_ZSt18uninitialized_copyIPfS0_ET0_T_S2_S1_
FNDA:0,_ZSt18uninitialized_copyIN9__gnu_cxx17__normal_iteratorIPKSt6vectorIiSaIiEES2_IS4_SaIS4_EEEEPS4_ET0_T_SC_SB_
FNDA:0,_ZSt18uninitialized_copyIN9__gnu_cxx17__normal_iteratorIPKSsSt6vectorISsSaISsEEEEPSsET0_T_SA_S9_
FNDA:0,_ZSt18uninitialized_copyIN9__gnu_cxx17__normal_iteratorIPKiSt6vectorIiSaIiEEEEPiET0_T_SA_S9_
FNDA:0,_ZSt22__uninitialized_copy_aIN9__gnu_cxx17__normal_iteratorIPKfSt6vectorIfSaIfEEEEPffET0_T_SA_S9_RSaIT1_E
FNDA:0,_ZSt22__uninitialized_copy_aIPKSsPSsSsET0_T_S4_S3_RSaIT1_E
FNDA:0,_ZSt22__uninitialized_copy_aIPKiPiiET0_T_S4_S3_RSaIT1_E
FNDA:0,_ZSt22__uninitialized_copy_aIPfS0_fET0_T_S2_S1_RSaIT1_E
FNDA:0,_ZSt22__uninitialized_copy_aIN9__gnu_cxx17__normal_iteratorIPKSt6vectorIiSaIiEES2_IS4_SaIS4_EEEEPS4_S4_ET0_T_SC_SB_RSaIT1_E
FNDA:0,_ZSt22__uninitialized_copy_aIN9__gnu_cxx17__normal_iteratorIPKSsSt6vectorISsSaISsEEEEPSsSsET0_T_SA_S9_RSaIT1_E
FNDA:0,_ZSt22__uninitialized_copy_aIN9__gnu_cxx17__normal_iteratorIPKiSt6vectorIiSaIiEEEEPiiET0_T_SA_S9_RSaIT1_E
FNF:21
FNH:0
DA:68,0
DA:71,0
DA:74,0
DA:75,0
DA:76,0
DA:78,=====
DA:80,=====
DA:81,=====
DA:91,0
DA:93,0
DA:107,0
DA:117,0
DA:256,0
DA:258,0
LF:14
LH:0
end_of_record
SF:/usr/include/c++/4.8/bits/stl_vector.h
FN:79,_ZNSt12_Vector_baseIiSaIiEE12_Vector_implD2Ev
FN:79,_ZNSt12_Vector_baseISt6vectorIiSaIiEESaIS2_EE12_Vector_implD2Ev
FN:79,_ZNSt12_Vector_baseIfSaIfEE12_Vector_implD2Ev
FN:79,_ZNSt12_Vector_baseISsSaISsEE12_Vector_implD2Ev
FN:86,_ZNSt12_Vector_baseIfSaIfEE12_Vector_implC2Ev
FN:90,_ZNSt12_Vector_baseISt6vectorIiSaIiEESaIS2_EE12_Vector_implC2ERKS3_
FN:90,_ZNSt12_Vector_baseIiSaIiEE12_Vector_implC2ERKS0_
FN:90,_ZNSt12_Vector_baseISsSaISsEE12_Vector_implC2ERKS0_
FN:113,_ZNSt12_Vector_baseIfSaIfEE19_M_get_Tp_allocatorEv
FN:113,_ZNSt12_Vector_baseISt6vectorIiSaIiEESaIS2_EE19_M_get_Tp_allocatorEv
FN:113,_ZNSt12_Vector_baseISsSaISsEE19_M_get_Tp_allocatorEv
FN:113,_ZNSt12_Vector_baseIiSaIiEE19_M_get_Tp_allocatorEv
FN:117,_ZNKSt12_Vector_baseISt6vectorIiSaIiEESaIS2_EE19_M_get_Tp_allocatorEv
FN:117,_ZNKSt12_Vector_baseIfSaIfEE19_M_get_Tp_allocatorEv
FN:117,_ZNKSt12_Vector_baseISsSaISsEE19_M_get_Tp_allocatorEv
FN:117,_ZNKSt12_Vector_baseIiSaIiEE19_M_get_Tp_allocatorEv
FN:124,_ZNSt12_Vector_baseIfSaIfEEC2Ev
FN:127,_ZNSt12_Vector_baseIiSaIiEEC2ERKS0_
FN:127,_ZNSt12_Vector_baseISsSaISsEEC2ERKS0_
FN:134,_ZNSt12_Vector_baseISsSaISsEEC2EmRKS0_
FN:134,_ZNSt12_Vector_baseIiSaIiEEC2EmRKS0_
FN:134,_ZNSt12_Vector_baseISt6vectorIiSaIiEESaIS2_EEC2EmRKS3_
FN:159,_ZNSt12_Vector_baseISsSaISsEED2Ev
FN:159,_ZNSt12_Vector_baseIiSaIiEED2Ev
FN:159,_ZNSt12_Vector_baseISt6vectorIiSaIiEESaIS2_EED2Ev
FN:159,_ZNSt12_Vector_baseIfSaIfEED2Ev
FN:167,_ZNSt12_Vector_baseIfSaIfEE11_M_allocateEm
FN:167,_ZNSt12_Vector_baseIiSaIiEE11_M_allocateEm
FN:167,_ZNSt12_Vector_baseISsSaISsEE11_M_allocateEm
FN:167,_ZNSt12_Vector_baseISt6vectorIiSaIiEESaIS2_EE11_M_allocateEm
FN:171,_ZNSt12_Vector_baseISt6vectorIiSaIiEESaIS2_EE13_M_deallocateEPS2_m
FN:171,_ZNSt12_Vector_baseIfSaIfEE13_M_deallocateEPfm
FN:171,_ZNSt12_Vector_baseIiSaIiEE13_M_deallocateEPim
FN:171,_ZNSt12_Vector_baseISsSaISsEE13_M_deallocateEPSsm
FN:179,_ZNSt12_Vector_baseISt6vectorIiSaIiEESaIS2_EE17_M_create_storageEm
FN:179,_ZNSt12_Vector_baseISsSaISsEE17_M_create_storageEm
FN:179,_ZNSt12_Vector_baseIiSaIiEE17_M_create_storageEm
FN:248,_ZNSt6vectorIfSaIfEEC2Ev
FN:310,_ZNSt6vectorIiSaIiEEC2ERKS1_
FN:310,_ZNSt6vectorISsSaISsEEC2ERKS1_
FN:310,_ZNSt6vectorIS_IiSaIiEESaIS1_EEC2ERKS3_
FN:364,_ZNSt6vectorISsSaISsEEC2ESt16initializer_listISsERKS0_
FN:364,_ZNSt6vectorIiSaIiEEC2ESt16initializer_listIiERKS0_
FN:414,_ZNSt6vectorIS_IiSaIiEESaIS1_EED2Ev
FN:414,_ZNSt6vectorIfSaIfEED2Ev
FN:414,_ZNSt6vectorIiSaIiEED2Ev
FN:414,_ZNSt6vectorISsSaISsEED2Ev
FN:538,_ZNSt6vectorIfSaIfEE5beginEv
FN:547,_ZNKSt6vectorIiSaIiEE5beginEv
FN:547,_ZNKSt6vectorIS_IiSaIiEESaIS1_EE5beginEv
FN:547,_ZNKSt6vectorIfSaIfEE5beginEv
FN:547,_ZNKSt6vectorISsSaISsEE5beginEv
FN:556,_ZNSt6vectorIfSaIfEE3endEv
FN:565,_ZNKSt6vectorIS_IiSaIiEESaIS1_EE3endEv
FN:565,_ZNKSt6vectorIfSaIfEE3endEv
FN:565,_ZNKSt6vectorISsSaISsEE3endEv
FN:565,_ZNKSt6vectorIiSaIiEE3endEv
FN:645,_ZNKSt6vectorISsSaISsEE4sizeEv
FN:645,_ZNKSt6vectorIS_IiSaIiEESaIS1_EE4sizeEv
FN:645,_ZNKSt6vectorIfSaIfEE4sizeEv
FN:645,_ZNKSt6vectorIiSaIiEE4sizeEv
FN:725,_ZNKSt6vectorIfSaIfEE8capacityEv
FN:770,_ZNSt6vectorIiSaIiEEixEm
FN:770,_ZNSt6vectorIS_IiSaIiEESaIS1_EEixEm
FN:770,_ZNSt6vectorIfSaIfEEixEm
FN:1125,_ZNSt6vectorIfSaIfEE5clearEv
FN:1135,_ZNSt6vectorIfSaIfEE20_M_allocate_and_copyIN9__gnu_cxx17__normal_iteratorIPKfS1_EEEEPfmT_S9_
FN:1197,_ZNSt6vectorIiSaIiEE19_M_range_initializeIPKiEEvT_S5_St20forward_iterator_tag
FN:1197,_ZNSt6vectorISsSaISsEE19_M_range_initializeIPKSsEEvT_S5_St20forward_iterator_tag
FN:1350,_ZNSt6vectorIfSaIfEE15_M_erase_at_endEPf
FNDA:0,_ZNSt12_Vector_baseISt6vectorIiSaIiEESaIS2_EE12_Vector_implD2Ev
FNDA:0,_ZNSt12_Vector_baseISsSaISsEE12_Vector_implD2Ev
FNDA:0,_ZNSt12_Vector_baseIfSaIfEE12_Vector_implD2Ev
FNDA:0,_ZNSt12_Vector_baseIiSaIiEE12_Vector_implD2Ev
FNDA:0,_ZNSt12_Vector_baseIfSaIfEE12_Vector_implC2Ev
FNDA:0,_ZNSt12_Vector_baseISt6vectorIiSaIiEESaIS2_EE12_Vector_implC2ERKS3_
FNDA:0,_ZNSt12_Vector_baseISsSaISsEE12_Vector_implC2ERKS0_
FNDA:0,_ZNSt12_Vector_baseIiSaIiEE12_Vector_implC2ERKS0_
FNDA:0,_ZNSt12_Vector_baseISt6vectorIiSaIiEESaIS2_EE19_M_get_Tp_allocatorEv
FNDA:0,_ZNSt12_Vector_baseISsSaISsEE19_M_get_Tp_allocatorEv
FNDA:0,_ZNSt12_Vector_baseIfSaIfEE19_M_get_Tp_allocatorEv
FNDA:0,_ZNSt12_Vector_baseIiSaIiEE19_M_get_Tp_allocatorEv
FNDA:0,_ZNKSt12_Vector_baseIfSaIfEE19_M_get_Tp_allocatorEv
FNDA:0,_ZNKSt12_Vector_baseISt6vectorIiSaIiEESaIS2_EE19_M_get_Tp_allocatorEv
FNDA:0,_ZNKSt12_Vector_baseISsSaISsEE19_M_get_Tp_allocatorEv
FNDA:0,_ZNKSt12_Vector_baseIiSaIiEE19_M_get_Tp_allocatorEv
FNDA:0,_ZNSt12_Vector_baseIfSaIfEEC2Ev
FNDA:0,_ZNSt12_Vector_baseISsSaISsEEC2ERKS0_
FNDA:0,_ZNSt12_Vector_baseIiSaIiEEC2ERKS0_
FNDA:0,_ZNSt12_Vector_baseISt6vectorIiSaIiEESaIS2_EEC2EmRKS3_
FNDA:0,_ZNSt12_Vector_baseISsSaISsEEC2EmRKS0_
FNDA:0,_ZNSt12_Vector_baseIiSaIiEEC2EmRKS0_
FNDA:0,_ZNSt12_Vector_baseISt6vectorIiSaIiEESaIS2_EED2Ev
FNDA:0,_ZNSt12_Vector_baseISsSaISsEED2Ev
FNDA:0,_ZNSt12_Vector_baseIfSaIfEED2Ev
FNDA:0,_ZNSt12_Vector_baseIiSaIiEED2Ev
FNDA:0,_ZNSt12_Vector_baseISt6vectorIiSaIiEESaIS2_EE11_M_allocateEm
FNDA:0,_ZNSt12_Vector_baseIfSaIfEE11_M_allocateEm
FNDA:0,_ZNSt12_Vector_baseISsSaISsEE11_M_allocateEm
FNDA:0,_ZNSt12_Vector_baseIiSaIiEE11_M_allocateEm
FNDA:0,_ZNSt12_Vector_baseISt6vectorIiSaIiEESaIS2_EE13_M_deallocateEPS2_m
FNDA:0,_ZNSt12_Vector_baseISsSaISsEE13_M_deallocateEPSsm
FNDA:0,_ZNSt12_Vector_baseIiSaIiEE13_M_deallocateEPim
FNDA:0,_ZNSt12_Vector_baseIfSaIfEE13_M_deallocateEPfm
FNDA:0,_ZNSt12_Vector_baseISt6vectorIiSaIiEESaIS2_EE17_M_create_storageEm
FNDA:0,_ZNSt12_Vector_baseISsSaISsEE17_M_create_storageEm
FNDA:0,_ZNSt12_Vector_baseIiSaIiEE17_M_create_storageEm
FNDA:0,_ZNSt6vectorIfSaIfEEC2Ev
FNDA:0,_ZNSt6vectorIS_IiSaIiEESaIS1_EEC2ERKS3_
FNDA:0,_ZNSt6vectorISsSaISsEEC2ERKS1_
FNDA:0,_ZNSt6vectorIiSaIiEEC2ERKS1_
FNDA:0,_ZNSt6vectorISsSaISsEEC2ESt16initializer_listISsERKS0_
FNDA:0,_ZNSt6vectorIiSaIiEEC2ESt16initializer_listIiERKS0_
FNDA:0,_ZNSt6vectorIS_IiSaIiEESaIS1_EED2Ev
FNDA:0,_ZNSt6vectorISsSaISsEED2Ev
FNDA:0,_ZNSt6vectorIfSaIfEED2Ev
FNDA:0,_ZNSt6vectorIiSaIiEED2Ev
FNDA:0,_ZNSt6vectorIfSaIfEE5beginEv
FNDA:0,_ZNKSt6vectorIfSaIfEE5beginEv
FNDA:0,_ZNKSt6vectorIS_IiSaIiEESaIS1_EE5beginEv
FNDA:0,_ZNKSt6vectorISsSaISsEE5beginEv
FNDA:0,_ZNKSt6vectorIiSaIiEE5beginEv
FNDA:0,_ZNSt6vectorIfSaIfEE3endEv
FNDA:0,_ZNKSt6vectorIfSaIfEE3endEv
FNDA:0,_ZNKSt6vectorIS_IiSaIiEESaIS1_EE3endEv
FNDA:0,_ZNKSt6vectorISsSaISsEE3endEv
FNDA:0,_ZNKSt6vectorIiSaIiEE3endEv
FNDA:0,_ZNKSt6vectorIfSaIfEE4sizeEv
FNDA:0,_ZNKSt6vectorISsSaISsEE4sizeEv
FNDA:0,_ZNKSt6vectorIS_IiSaIiEESaIS1_EE4sizeEv
FNDA:0,_ZNKSt6vectorIiSaIiEE4sizeEv
FNDA:1,_ZNKSt6vectorIfSaIfEE8capacityEv
FNDA:0,_ZNSt6vectorIS_IiSaIiEESaIS1_EEixEm
FNDA:4,_ZNSt6vectorIfSaIfEEixEm
FNDA:0,_ZNSt6vectorIiSaIiEEixEm
FNDA:0,_ZNSt6vectorIfSaIfEE5clearEv
FNDA:1,_ZNSt6vectorIfSaIfEE20_M_allocate_and_copyIN9__gnu_cxx17__normal_iteratorIPKfS1_EEEEPfmT_S9_
FNDA:0,_ZNSt6vectorISsSaISsEE19_M_range_initializeIPKSsEEvT_S5_St20forward_iterator_tag
FNDA:0,_ZNSt6vectorIiSaIiEE19_M_range_initializeIPKiEEvT_S5_St20forward_iterator_tag
FNDA:0,_ZNSt6vectorIfSaIfEE15_M_erase_at_endEPf
FNF:70
FNH:3
DA:79,0
DA:86,0
DA:87,0
DA:88,0
DA:90,0
DA:91,0
DA:92,0
DA:113,0
DA:114,0
DA:117,0
DA:118,0
DA:124,0
DA:125,0
DA:127,0
DA:128,0
DA:134,0
DA:135,0
DA:136,0
DA:159,0
DA:160,0
DA:161,0
DA:167,0
DA:168,0
DA:171,0
DA:173,0
DA:174,0
DA:175,0
DA:179,0
DA:181,0
DA:182,0
DA:183,0
DA:184,0
DA:248,0
DA:249,0
DA:310,0
DA:312,0
DA:313,0
DA:316,0
DA:317,0
DA:364,0
DA:366,0
DA:368,0
DA:369,0
DA:370,0
DA:414,0
DA:415,0
DA:416,0
DA:538,0
DA:539,0
DA:547,0
DA:548,0
DA:556,0
DA:557,0
DA:565,0
DA:566,0
DA:645,0
DA:646,0
DA:725,1
DA:727,1
DA:770,4
DA:771,4
DA:1125,0
DA:1126,0
DA:1135,1
DA:1138,1
DA:1141,1
DA:1142,1
DA:1143,1
DA:1145,=====
DA:1147,=====
DA:1148,=====
DA:1197,0
DA:1200,0
DA:1201,0
DA:1202,0
DA:1203,0
DA:1206,0
DA:1207,0
DA:1350,0
DA:1352,0
DA:1353,0
DA:1354,0
LF:82
LH:9
end_of_record
SF:/usr/include/c++/4.8/bits/vector.tcc
FN:160,_ZNSt6vectorIfSaIfEEaSERKS1_
FNDA:1,_ZNSt6vectorIfSaIfEEaSERKS1_
FNF:1
FNH:1
DA:160,1
DA:163,1
DA:166,1
DA:168,0
DA:169,0
DA:172,0
DA:173,0
DA:175,0
DA:176,0
DA:177,0
DA:178,0
DA:180,0
DA:181,0
DA:184,1
DA:185,1
DA:188,1
DA:189,1
DA:190,1
DA:191,1
DA:193,1
DA:194,1
DA:195,1
DA:197,0
DA:199,0
DA:200,0
DA:204,0
DA:205,0
DA:206,0
DA:209,0
DA:211,1
DA:213,1
LF:31
LH:14
end_of_record
SF:/usr/include/c++/4.8/ext/alloc_traits.h
FN:166,_ZN9__gnu_cxx14__alloc_traitsISaISt6vectorIiSaIiEEEE17_S_select_on_copyERKS4_
FN:166,_ZN9__gnu_cxx14__alloc_traitsISaISsEE17_S_select_on_copyERKS1_
FN:166,_ZN9__gnu_cxx14__alloc_traitsISaIiEE17_S_select_on_copyERKS1_
FN:172,_ZN9__gnu_cxx14__alloc_traitsISaIfEE27_S_propagate_on_copy_assignEv
FN:181,_ZN9__gnu_cxx14__alloc_traitsISaIfEE15_S_always_equalEv
FNDA:0,_ZN9__gnu_cxx14__alloc_traitsISaISt6vectorIiSaIiEEEE17_S_select_on_copyERKS4_
FNDA:0,_ZN9__gnu_cxx14__alloc_traitsISaISsEE17_S_select_on_copyERKS1_
FNDA:0,_ZN9__gnu_cxx14__alloc_traitsISaIiEE17_S_select_on_copyERKS1_
FNDA:1,_ZN9__gnu_cxx14__alloc_traitsISaIfEE27_S_propagate_on_copy_assignEv
FNDA:0,_ZN9__gnu_cxx14__alloc_traitsISaIfEE15_S_always_equalEv
FNF:5
FNH:1
DA:166,0
DA:167,0
DA:172,1
DA:173,1
DA:181,0
DA:182,0
LF:6
LH:2
end_of_record
SF:/usr/include/c++/4.8/ext/atomicity.h
FN:48,_ZN9__gnu_cxxL18__exchange_and_addEPVii
FN:65,_ZN9__gnu_cxxL25__exchange_and_add_singleEPii
FN:78,_ZN9__gnu_cxxL27__exchange_and_add_dispatchEPii
FNDA:0,_ZN9__gnu_cxxL18__exchange_and_addEPVii
FNDA:0,_ZN9__gnu_cxxL25__exchange_and_add_singleEPii
FNDA:0,_ZN9__gnu_cxxL27__exchange_and_add_dispatchEPii
FNF:3
FNH:0
DA:48,0
DA:49,0
DA:65,0
DA:67,0
DA:68,0
DA:69,0
DA:78,0
DA:81,0
DA:82,0
DA:84,0
LF:10
LH:0
end_of_record
SF:/usr/include/c++/4.8/ext/new_allocator.h
FN:79,_ZN9__gnu_cxx13new_allocatorIiEC2Ev
FN:79,_ZN9__gnu_cxx13new_allocatorISsEC2Ev
FN:79,_ZN9__gnu_cxx13new_allocatorIfEC2Ev
FN:79,_ZN9__gnu_cxx13new_allocatorIcEC2Ev
FN:81,_ZN9__gnu_cxx13new_allocatorISsEC2ERKS1_
FN:81,_ZN9__gnu_cxx13new_allocatorIiEC2ERKS1_
FN:81,_ZN9__gnu_cxx13new_allocatorISt6vectorIiSaIiEEEC2ERKS4_
FN:81,_ZN9__gnu_cxx13new_allocatorIcEC2ERKS1_
FN:86,_ZN9__gnu_cxx13new_allocatorISsED2Ev
FN:86,_ZN9__gnu_cxx13new_allocatorISt6vectorIiSaIiEEED2Ev
FN:86,_ZN9__gnu_cxx13new_allocatorIcED2Ev
FN:86,_ZN9__gnu_cxx13new_allocatorIfED2Ev
FN:86,_ZN9__gnu_cxx13new_allocatorIiED2Ev
FN:99,_ZN9__gnu_cxx13new_allocatorIiE8allocateEmPKv
FN:99,_ZN9__gnu_cxx13new_allocatorIfE8allocateEmPKv
FN:99,_ZN9__gnu_cxx13new_allocatorISsE8allocateEmPKv
FN:99,_ZN9__gnu_cxx13new_allocatorISt6vectorIiSaIiEEE8allocateEmPKv
FN:109,_ZN9__gnu_cxx13new_allocatorIiE10deallocateEPim
FN:109,_ZN9__gnu_cxx13new_allocatorIfE10deallocateEPfm
FN:109,_ZN9__gnu_cxx13new_allocatorISsE10deallocateEPSsm
FN:109,_ZN9__gnu_cxx13new_allocatorISt6vectorIiSaIiEEE10deallocateEPS3_m
FN:113,_ZNK9__gnu_cxx13new_allocatorISsE8max_sizeEv
FN:113,_ZNK9__gnu_cxx13new_allocatorIiE8max_sizeEv
FN:113,_ZNK9__gnu_cxx13new_allocatorISt6vectorIiSaIiEEE8max_sizeEv
FN:113,_ZNK9__gnu_cxx13new_allocatorIfE8max_sizeEv
FNDA:0,_ZN9__gnu_cxx13new_allocatorIfEC2Ev
FNDA:0,_ZN9__gnu_cxx13new_allocatorISsEC2Ev
FNDA:0,_ZN9__gnu_cxx13new_allocatorIiEC2Ev
FNDA:0,_ZN9__gnu_cxx13new_allocatorIcEC2Ev
FNDA:0,_ZN9__gnu_cxx13new_allocatorISt6vectorIiSaIiEEEC2ERKS4_
FNDA:0,_ZN9__gnu_cxx13new_allocatorISsEC2ERKS1_
FNDA:0,_ZN9__gnu_cxx13new_allocatorIiEC2ERKS1_
FNDA:0,_ZN9__gnu_cxx13new_allocatorIcEC2ERKS1_
FNDA:0,_ZN9__gnu_cxx13new_allocatorIfED2Ev
FNDA:0,_ZN9__gnu_cxx13new_allocatorISt6vectorIiSaIiEEED2Ev
FNDA:0,_ZN9__gnu_cxx13new_allocatorISsED2Ev
FNDA:0,_ZN9__gnu_cxx13new_allocatorIiED2Ev
FNDA:0,_ZN9__gnu_cxx13new_allocatorIcED2Ev
FNDA:0,_ZN9__gnu_cxx13new_allocatorISt6vectorIiSaIiEEE8allocateEmPKv
FNDA:0,_ZN9__gnu_cxx13new_allocatorIfE8allocateEmPKv
FNDA:0,_ZN9__gnu_cxx13new_allocatorISsE8allocateEmPKv
FNDA:0,_ZN9__gnu_cxx13new_allocatorIiE8allocateEmPKv
FNDA:0,_ZN9__gnu_cxx13new_allocatorISt6vectorIiSaIiEEE10deallocateEPS3_m
FNDA:0,_ZN9__gnu_cxx13new_allocatorISsE10deallocateEPSsm
FNDA:0,_ZN9__gnu_cxx13new_allocatorIiE10deallocateEPim
FNDA:0,_ZN9__gnu_cxx13new_allocatorIfE10deallocateEPfm
FNDA:0,_ZNK9__gnu_cxx13new_allocatorISt6vectorIiSaIiEEE8max_sizeEv
FNDA:0,_ZNK9__gnu_cxx13new_allocatorIfE8max_sizeEv
FNDA:0,_ZNK9__gnu_cxx13new_allocatorISsE8max_sizeEv
FNDA:0,_ZNK9__gnu_cxx13new_allocatorIiE8max_sizeEv
FNF:25
FNH:0
DA:79,0
DA:81,0
DA:86,0
DA:99,0
DA:101,0
DA:102,0
DA:104,0
DA:109,0
DA:110,0
DA:113,0
DA:114,0
LF:11
LH:0
end_of_record
SF:/usr/include/c++/4.8/ext/type_traits.h
FN:150,_ZN9__gnu_cxx17__is_null_pointerIcEEbPT_
FNDA:0,_ZN9__gnu_cxx17__is_null_pointerIcEEbPT_
FNF:1
FNH:0
DA:150,0
DA:151,0
LF:2
LH:0
end_of_record
SF:/usr/include/c++/4.8/initializer_list
FN:71,_ZNKSt16initializer_listISsE4sizeEv
FN:71,_ZNKSt16initializer_listIiE4sizeEv
FN:75,_ZNKSt16initializer_listISsE5beginEv
FN:75,_ZNKSt16initializer_listIiE5beginEv
FN:79,_ZNKSt16initializer_listIiE3endEv
FN:79,_ZNKSt16initializer_listISsE3endEv
FNDA:0,_ZNKSt16initializer_listISsE4sizeEv
FNDA:0,_ZNKSt16initializer_listIiE4sizeEv
FNDA:0,_ZNKSt16initializer_listISsE5beginEv
FNDA:0,_ZNKSt16initializer_listIiE5beginEv
FNDA:0,_ZNKSt16initializer_listISsE3endEv
FNDA:0,_ZNKSt16initializer_listIiE3endEv
FNF:6
FNH:0
DA:71,0
DA:75,0
DA:79,0
LF:3
LH:0
end_of_record
SF:/usr/include/c++/4.8/iostream
DA:74,1
LF:1
LH:1
end_of_record
SF:/usr/include/c++/4.8/new
FN:109,_ZnwmPv
FN:115,_ZdlPvS_
FNDA:0,_ZnwmPv
FNDA:0,_ZdlPvS_
FNF:2
FNH:0
DA:109,0
DA:110,0
DA:115,0
LF:3
LH:0
end_of_record
SF:/usr/include/c++/4.8/sstream
FN:64,_ZNSt15basic_stringbufIcSt11char_traitsIcESaIcEED0Ev
FN:64,_ZNSt15basic_stringbufIcSt11char_traitsIcESaIcEED2Ev
FNDA:0,_ZNSt15basic_stringbufIcSt11char_traitsIcESaIcEED0Ev
FNDA:0,_ZNSt15basic_stringbufIcSt11char_traitsIcESaIcEED2Ev
FNF:2
FNH:0
DA:64,0
LF:1
LH:0
end_of_record
SF:/usr/include/c++/4.8/tuple
FN:129,_ZNSt10_Head_baseILm1ESt6vectorIfSaIfEELb0EED2Ev
FN:169,_ZNSt10_Head_baseILm1ESt6vectorIfSaIfEELb0EE7_M_headERS3_
FN:169,_ZNSt10_Head_baseILm0EiLb0EE7_M_headERS0_
FN:231,_ZNSt11_Tuple_implILm1EISt6vectorIfSaIfEEEED2Ev
FN:231,_ZNSt11_Tuple_implILm0EIiSt6vectorIfSaIfEEEED2Ev
FN:241,_ZNSt11_Tuple_implILm1EISt6vectorIfSaIfEEEE7_M_headERS3_
FN:241,_ZNSt11_Tuple_implILm0EIiSt6vectorIfSaIfEEEE7_M_headERS3_
FN:523,_ZNSt5tupleIIiSt6vectorIfSaIfEEEED2Ev
FN:744,_ZSt12__get_helperILm1ESt6vectorIfSaIfEEIEENSt9__add_refIT0_E4typeERSt11_Tuple_implIXT_EIS4_DpT1_EE
FN:744,_ZSt12__get_helperILm0EiISt6vectorIfSaIfEEEENSt9__add_refIT0_E4typeERSt11_Tuple_implIXT_EIS4_DpT1_EE
FN:759,_ZSt3getILm0EIiSt6vectorIfSaIfEEEENSt9__add_refINSt13tuple_elementIXT_ESt5tupleIIDpT0_EEE4typeEE4typeERS8_
FN:759,_ZSt3getILm1EIiSt6vectorIfSaIfEEEENSt9__add_refINSt13tuple_elementIXT_ESt5tupleIIDpT0_EEE4typeEE4typeERS8_
FNDA:1,_ZNSt10_Head_baseILm1ESt6vectorIfSaIfEELb0EED2Ev
FNDA:0,_ZNSt10_Head_baseILm0EiLb0EE7_M_headERS0_
FNDA:1,_ZNSt10_Head_baseILm1ESt6vectorIfSaIfEELb0EE7_M_headERS3_
FNDA:1,_ZNSt11_Tuple_implILm0EIiSt6vectorIfSaIfEEEED2Ev
FNDA:1,_ZNSt11_Tuple_implILm1EISt6vectorIfSaIfEEEED2Ev
FNDA:6,_ZNSt11_Tuple_implILm0EIiSt6vectorIfSaIfEEEE7_M_headERS3_
FNDA:1,_ZNSt11_Tuple_implILm1EISt6vectorIfSaIfEEEE7_M_headERS3_
FNDA:1,_ZNSt5tupleIIiSt6vectorIfSaIfEEEED2Ev
FNDA:6,_ZSt12__get_helperILm0EiISt6vectorIfSaIfEEEENSt9__add_refIT0_E4typeERSt11_Tuple_implIXT_EIS4_DpT1_EE
FNDA:1,_ZSt12__get_helperILm1ESt6vectorIfSaIfEEIEENSt9__add_refIT0_E4typeERSt11_Tuple_implIXT_EIS4_DpT1_EE
FNDA:6,_ZSt3getILm0EIiSt6vectorIfSaIfEEEENSt9__add_refINSt13tuple_elementIXT_ESt5tupleIIDpT0_EEE4typeEE4typeERS8_
FNDA:1,_ZSt3getILm1EIiSt6vectorIfSaIfEEEENSt9__add_refINSt13tuple_elementIXT_ESt5tupleIIDpT0_EEE4typeEE4typeERS8_
FNF:12
FNH:11
DA:129,1
DA:169,1
DA:231,2
DA:241,7
DA:523,1
DA:744,7
DA:745,7
DA:759,7
DA:760,7
LF:9
LH:9
end_of_record
SF:/usr/include/x86_64-linux-gnu/c++/4.8/bits/gthr-default.h
FN:247,_ZL18__gthread_active_pv
FNDA:0,_ZL18__gthread_active_pv
FNF:1
FNH:0
DA:247,0
DA:251,0
LF:2
LH:0
end_of_record
TN:
SF:/home/ruslan/Facultad/Algo1 2017/TPI2017/TPIalgo1/salaDeReuniones_TPI/src/lib/googletest-master/googletest/include/gtest/gtest-message.h
FN:85,_ZN7testing7MessageD2Ev
FNDA:0,_ZN7testing7MessageD2Ev
FNF:1
FNH:0
DA:85,0
LF:1
LH:0
end_of_record
SF:/home/ruslan/Facultad/Algo1 2017/TPI2017/TPIalgo1/salaDeReuniones_TPI/src/lib/googletest-master/googletest/include/gtest/gtest-printers.h
FN:222,_ZN16testing_internal26DefaultPrintNonContainerToIiEEvRKT_PSo
FN:222,_ZN16testing_internal26DefaultPrintNonContainerToImEEvRKT_PSo
FN:222,_ZN16testing_internal26DefaultPrintNonContainerToIfEEvRKT_PSo
FN:275,_ZN7testing8internal19FormatForComparisonIiiE6FormatERKi
FN:275,_ZN7testing8internal19FormatForComparisonISt6vectorISt5tupleIIffEESaIS4_EES6_E6FormatERKS6_
FN:275,_ZN7testing8internal19FormatForComparisonImmE6FormatERKm
FN:349,_ZN7testing8internal33FormatForComparisonFailureMessageISt6vectorISt5tupleIIffEESaIS4_EES6_EESsRKT_RKT0_
FN:349,_ZN7testing8internal33FormatForComparisonFailureMessageImmEESsRKT_RKT0_
FN:349,_ZN7testing8internal33FormatForComparisonFailureMessageIiiEESsRKT_RKT0_
FN:378,_ZN7testing8internal14DefaultPrintToISt6vectorISt5tupleIIffEESaIS4_EEEEvNS0_15WrapPrinterTypeILNS0_18DefaultPrinterTypeE0EEERKT_PSo
FN:442,_ZN7testing8internal14DefaultPrintToImEEvNS0_15WrapPrinterTypeILNS0_18DefaultPrinterTypeE3EEERKT_PSo
FN:442,_ZN7testing8internal14DefaultPrintToIiEEvNS0_15WrapPrinterTypeILNS0_18DefaultPrinterTypeE3EEERKT_PSo
FN:442,_ZN7testing8internal14DefaultPrintToIfEEvNS0_15WrapPrinterTypeILNS0_18DefaultPrinterTypeE3EEERKT_PSo
FN:459,_ZN7testing8internal7PrintToISt6vectorISt5tupleIIffEESaIS4_EEEEvRKT_PSo
FN:459,_ZN7testing8internal7PrintToImEEvRKT_PSo
FN:459,_ZN7testing8internal7PrintToIiEEvRKT_PSo
FN:459,_ZN7testing8internal7PrintToIfEEvRKT_PSo
FN:626,_ZN7testing8internal7PrintToIffEEvRKSt5tupleIIT_T0_EEPSo
FN:714,_ZN7testing8internal16UniversalPrinterISt6vectorISt5tupleIIffEESaIS4_EEE5PrintERKS6_PSo
FN:714,_ZN7testing8internal16UniversalPrinterIfE5PrintERKfPSo
FN:714,_ZN7testing8internal16UniversalPrinterISt5tupleIIffEEE5PrintERKS3_PSo
FN:714,_ZN7testing8internal16UniversalPrinterImE5PrintERKmPSo
FN:714,_ZN7testing8internal16UniversalPrinterIiE5PrintERKiPSo
FN:799,_ZN7testing8internal21UniversalTersePrinterIiE5PrintERKiPSo
FN:799,_ZN7testing8internal21UniversalTersePrinterImE5PrintERKmPSo
FN:799,_ZN7testing8internal21UniversalTersePrinterISt6vectorISt5tupleIIffEESaIS4_EEE5PrintERKS6_PSo
FN:868,_ZN7testing8internal14UniversalPrintISt6vectorISt5tupleIIffEESaIS4_EEEEvRKT_PSo
FN:868,_ZN7testing8internal14UniversalPrintISt5tupleIIffEEEEvRKT_PSo
FN:868,_ZN7testing8internal14UniversalPrintIiEEvRKT_PSo
FN:868,_ZN7testing8internal14UniversalPrintImEEvRKT_PSo
FN:917,_ZN7testing8internal11TuplePolicyISt5tupleIIffEEE3getILm0EEERKNSt13tuple_elementIXT_ES3_E4typeERKS3_
FN:917,_ZN7testing8internal11TuplePolicyISt5tupleIIffEEE3getILm1EEERKNSt13tuple_elementIXT_ES3_E4typeERKS3_
FN:939,_ZN7testing8internal18TuplePrefixPrinterILm1EE13PrintPrefixToISt5tupleIIffEEEEvRKT_PSo
FN:939,_ZN7testing8internal18TuplePrefixPrinterILm2EE13PrintPrefixToISt5tupleIIffEEEEvRKT_PSo
FN:966,_ZN7testing8internal18TuplePrefixPrinterILm0EE13PrintPrefixToISt5tupleIIffEEEEvRKT_PSo
FN:975,_ZN7testing8internal12PrintTupleToISt5tupleIIffEEEEvRKT_PSo
FN:996,_ZN7testing13PrintToStringImEESsRKT_
FN:996,_ZN7testing13PrintToStringIiEESsRKT_
FN:996,_ZN7testing13PrintToStringISt6vectorISt5tupleIIffEESaIS3_EEEESsRKT_
FNDA:0,_ZN16testing_internal26DefaultPrintNonContainerToIfEEvRKT_PSo
FNDA:0,_ZN16testing_internal26DefaultPrintNonContainerToIiEEvRKT_PSo
FNDA:0,_ZN16testing_internal26DefaultPrintNonContainerToImEEvRKT_PSo
FNDA:0,_ZN7testing8internal19FormatForComparisonISt6vectorISt5tupleIIffEESaIS4_EES6_E6FormatERKS6_
FNDA:0,_ZN7testing8internal19FormatForComparisonIiiE6FormatERKi
FNDA:0,_ZN7testing8internal19FormatForComparisonImmE6FormatERKm
FNDA:0,_ZN7testing8internal33FormatForComparisonFailureMessageISt6vectorISt5tupleIIffEESaIS4_EES6_EESsRKT_RKT0_
FNDA:0,_ZN7testing8internal33FormatForComparisonFailureMessageIiiEESsRKT_RKT0_
FNDA:0,_ZN7testing8internal33FormatForComparisonFailureMessageImmEESsRKT_RKT0_
FNDA:0,_ZN7testing8internal14DefaultPrintToISt6vectorISt5tupleIIffEESaIS4_EEEEvNS0_15WrapPrinterTypeILNS0_18DefaultPrinterTypeE0EEERKT_PSo
FNDA:0,_ZN7testing8internal14DefaultPrintToIfEEvNS0_15WrapPrinterTypeILNS0_18DefaultPrinterTypeE3EEERKT_PSo
FNDA:0,_ZN7testing8internal14DefaultPrintToIiEEvNS0_15WrapPrinterTypeILNS0_18DefaultPrinterTypeE3EEERKT_PSo
FNDA:0,_ZN7testing8internal14DefaultPrintToImEEvNS0_15WrapPrinterTypeILNS0_18DefaultPrinterTypeE3EEERKT_PSo
FNDA:0,_ZN7testing8internal7PrintToIfEEvRKT_PSo
FNDA:0,_ZN7testing8internal7PrintToISt6vectorISt5tupleIIffEESaIS4_EEEEvRKT_PSo
FNDA:0,_ZN7testing8internal7PrintToIiEEvRKT_PSo
FNDA:0,_ZN7testing8internal7PrintToImEEvRKT_PSo
FNDA:0,_ZN7testing8internal7PrintToIffEEvRKSt5tupleIIT_T0_EEPSo
FNDA:0,_ZN7testing8internal16UniversalPrinterIfE5PrintERKfPSo
FNDA:0,_ZN7testing8internal16UniversalPrinterISt5tupleIIffEEE5PrintERKS3_PSo
FNDA:0,_ZN7testing8internal16UniversalPrinterISt6vectorISt5tupleIIffEESaIS4_EEE5PrintERKS6_PSo
FNDA:0,_ZN7testing8internal16UniversalPrinterIiE5PrintERKiPSo
FNDA:0,_ZN7testing8internal16UniversalPrinterImE5PrintERKmPSo
FNDA:0,_ZN7testing8internal21UniversalTersePrinterISt6vectorISt5tupleIIffEESaIS4_EEE5PrintERKS6_PSo
FNDA:0,_ZN7testing8internal21UniversalTersePrinterIiE5PrintERKiPSo
FNDA:0,_ZN7testing8internal21UniversalTersePrinterImE5PrintERKmPSo
FNDA:0,_ZN7testing8internal14UniversalPrintISt5tupleIIffEEEEvRKT_PSo
FNDA:0,_ZN7testing8internal14UniversalPrintISt6vectorISt5tupleIIffEESaIS4_EEEEvRKT_PSo
FNDA:0,_ZN7testing8internal14UniversalPrintIiEEvRKT_PSo
FNDA:0,_ZN7testing8internal14UniversalPrintImEEvRKT_PSo
FNDA:0,_ZN7testing8internal11TuplePolicyISt5tupleIIffEEE3getILm0EEERKNSt13tuple_elementIXT_ES3_E4typeERKS3_
FNDA:0,_ZN7testing8internal11TuplePolicyISt5tupleIIffEEE3getILm1EEERKNSt13tuple_elementIXT_ES3_E4typeERKS3_
FNDA:0,_ZN7testing8internal18TuplePrefixPrinterILm1EE13PrintPrefixToISt5tupleIIffEEEEvRKT_PSo
FNDA:0,_ZN7testing8internal18TuplePrefixPrinterILm2EE13PrintPrefixToISt5tupleIIffEEEEvRKT_PSo
FNDA:0,_ZN7testing8internal18TuplePrefixPrinterILm0EE13PrintPrefixToISt5tupleIIffEEEEvRKT_PSo
FNDA:0,_ZN7testing8internal12PrintTupleToISt5tupleIIffEEEEvRKT_PSo
FNDA:0,_ZN7testing13PrintToStringISt6vectorISt5tupleIIffEESaIS3_EEEESsRKT_
FNDA:0,_ZN7testing13PrintToStringIiEESsRKT_
FNDA:0,_ZN7testing13PrintToStringImEESsRKT_
FNF:39
FNH:0
DA:222,0
DA:249,0
DA:250,0
DA:275,0
DA:276,0
DA:349,0
DA:351,0
DA:378,0
DA:380,0
DA:381,0
DA:382,0
DA:383,0
DA:384,0
DA:385,0
DA:386,0
DA:387,0
DA:388,0
DA:389,0
DA:392,0
DA:395,0
DA:398,0
DA:399,0
DA:401,0
DA:402,0
DA:442,0
DA:444,0
DA:445,0
DA:459,0
DA:481,0
DA:493,0
DA:494,0
DA:626,0
DA:627,0
DA:628,0
DA:714,0
DA:723,0
DA:724,0
DA:799,0
DA:800,0
DA:801,0
DA:868,0
DA:872,0
DA:873,0
DA:917,0
DA:919,0
DA:939,0
DA:940,0
DA:944,0
DA:946,0
DA:948,0
DA:949,0
DA:966,0
DA:975,0
DA:976,0
DA:977,0
DA:978,0
DA:979,0
DA:996,0
DA:997,0
DA:998,0
DA:999,0
LF:61
LH:0
end_of_record
SF:/home/ruslan/Facultad/Algo1 2017/TPI2017/TPIalgo1/salaDeReuniones_TPI/src/lib/googletest-master/googletest/include/gtest/gtest.h
FN:256,_ZN7testing15AssertionResultD2Ev
FN:288,_ZNK7testing15AssertionResultcvbEv
FN:297,_ZNK7testing15AssertionResult7messageEv
FN:302,_ZNK7testing15AssertionResult15failure_messageEv
FN:389,_ZN7testing4Test13SetUpTestCaseEv
FN:397,_ZN7testing4Test16TearDownTestCaseEv
FN:474,_ZN7testing4Test5SetupEv
FN:1375,_ZN7testing8internal18CmpHelperEQFailureImmEENS_15AssertionResultEPKcS4_RKT_RKT0_
FN:1375,_ZN7testing8internal18CmpHelperEQFailureIiiEENS_15AssertionResultEPKcS4_RKT_RKT0_
FN:1375,_ZN7testing8internal18CmpHelperEQFailureISt6vectorISt5tupleIIffEESaIS4_EES6_EENS_15AssertionResultEPKcS9_RKT_RKT0_
FN:1387,_ZN7testing8internal11CmpHelperEQISt6vectorISt5tupleIIffEESaIS4_EES6_EENS_15AssertionResultEPKcS9_RKT_RKT0_
FN:1387,_ZN7testing8internal11CmpHelperEQIiiEENS_15AssertionResultEPKcS4_RKT_RKT0_
FN:1387,_ZN7testing8internal11CmpHelperEQImmEENS_15AssertionResultEPKcS4_RKT_RKT0_
FN:1417,_ZN7testing8internal8EqHelperILb0EE7CompareIiiEENS_15AssertionResultEPKcS6_RKT_RKT0_
FN:1417,_ZN7testing8internal8EqHelperILb0EE7CompareISt6vectorISt5tupleIIffEESaIS6_EES8_EENS_15AssertionResultEPKcSB_RKT_RKT0_
FN:1417,_ZN7testing8internal8EqHelperILb0EE7CompareImmEENS_15AssertionResultEPKcS6_RKT_RKT0_
FNDA:0,_ZN7testing15AssertionResultD2Ev
FNDA:0,_ZNK7testing15AssertionResultcvbEv
FNDA:0,_ZNK7testing15AssertionResult7messageEv
FNDA:0,_ZNK7testing15AssertionResult15failure_messageEv
FNDA:0,_ZN7testing4Test13SetUpTestCaseEv
FNDA:0,_ZN7testing4Test16TearDownTestCaseEv
FNDA:0,_ZN7testing4Test5SetupEv
FNDA:0,_ZN7testing8internal18CmpHelperEQFailureISt6vectorISt5tupleIIffEESaIS4_EES6_EENS_15AssertionResultEPKcS9_RKT_RKT0_
FNDA:0,_ZN7testing8internal18CmpHelperEQFailureIiiEENS_15AssertionResultEPKcS4_RKT_RKT0_
FNDA:0,_ZN7testing8internal18CmpHelperEQFailureImmEENS_15AssertionResultEPKcS4_RKT_RKT0_
FNDA:2,_ZN7testing8internal11CmpHelperEQISt6vectorISt5tupleIIffEESaIS4_EES6_EENS_15AssertionResultEPKcS9_RKT_RKT0_
FNDA:0,_ZN7testing8internal11CmpHelperEQIiiEENS_15AssertionResultEPKcS4_RKT_RKT0_
FNDA:16,_ZN7testing8internal11CmpHelperEQImmEENS_15AssertionResultEPKcS4_RKT_RKT0_
FNDA:2,_ZN7testing8internal8EqHelperILb0EE7CompareISt6vectorISt5tupleIIffEESaIS6_EES8_EENS_15AssertionResultEPKcSB_RKT_RKT0_
FNDA:0,_ZN7testing8internal8EqHelperILb0EE7CompareIiiEENS_15AssertionResultEPKcS6_RKT_RKT0_
FNDA:16,_ZN7testing8internal8EqHelperILb0EE7CompareImmEENS_15AssertionResultEPKcS6_RKT_RKT0_
FNF:16
FNH:4
DA:256,0
DA:288,0
DA:297,0
DA:298,0
DA:302,0
DA:389,0
DA:397,0
DA:474,0
DA:1375,0
DA:1382,0
DA:1387,18
DA:1392,18
DA:1393,18
DA:1397,0
DA:1417,18
DA:1421,18
LF:16
LH:5
end_of_record
SF:/home/ruslan/Facultad/Algo1 2017/TPI2017/TPIalgo1/salaDeReuniones_TPI/src/lib/googletest-master/googletest/include/gtest/internal/gtest-internal.h
FN:466,_ZN7testing8internal15TestFactoryBaseD2Ev
FN:466,_ZN7testing8internal15TestFactoryBaseD0Ev
FN:473,_ZN7testing8internal15TestFactoryBaseC2Ev
FN:482,_ZN7testing8internal15TestFactoryImplI26silenciosTEST_unAudio_TestED0Ev
FN:482,_ZN7testing8internal15TestFactoryImplI26silenciosTEST_unAudio_TestED2Ev
FN:482,_ZN7testing8internal15TestFactoryImplI34silenciosTEST_silencioAlFinal_TestEC2Ev
FN:482,_ZN7testing8internal15TestFactoryImplI34silenciosTEST_silencioAlFinal_TestED2Ev
FN:482,_ZN7testing8internal15TestFactoryImplI26silenciosTEST_unAudio_TestEC2Ev
FN:482,_ZN7testing8internal15TestFactoryImplI34silenciosTEST_silencioAlFinal_TestED0Ev
FN:484,_ZN7testing8internal15TestFactoryImplI34silenciosTEST_silencioAlFinal_TestE10CreateTestEv
FN:484,_ZN7testing8internal15TestFactoryImplI26silenciosTEST_unAudio_TestE10CreateTestEv
FN:504,_ZN7testing8internal12CodeLocationD2Ev
FN:505,_ZN7testing8internal12CodeLocationC2ERKSsi
FNDA:0,_ZN7testing8internal15TestFactoryBaseD0Ev
FNDA:0,_ZN7testing8internal15TestFactoryBaseD2Ev
FNDA:0,_ZN7testing8internal15TestFactoryBaseC2Ev
FNDA:2,_ZN7testing8internal15TestFactoryImplI26silenciosTEST_unAudio_TestED0Ev
FNDA:2,_ZN7testing8internal15TestFactoryImplI26silenciosTEST_unAudio_TestED2Ev
FNDA:2,_ZN7testing8internal15TestFactoryImplI34silenciosTEST_silencioAlFinal_TestED0Ev
FNDA:2,_ZN7testing8internal15TestFactoryImplI34silenciosTEST_silencioAlFinal_TestED2Ev
FNDA:2,_ZN7testing8internal15TestFactoryImplI34silenciosTEST_silencioAlFinal_TestEC2Ev
FNDA:2,_ZN7testing8internal15TestFactoryImplI26silenciosTEST_unAudio_TestEC2Ev
FNDA:2,_ZN7testing8internal15TestFactoryImplI26silenciosTEST_unAudio_TestE10CreateTestEv
FNDA:2,_ZN7testing8internal15TestFactoryImplI34silenciosTEST_silencioAlFinal_TestE10CreateTestEv
FNDA:0,_ZN7testing8internal12CodeLocationD2Ev
FNDA:0,_ZN7testing8internal12CodeLocationC2ERKSsi
FNF:13
FNH:8
DA:466,0
DA:473,0
DA:482,12
DA:484,4
DA:504,0
DA:505,0
DA:506,0
LF:7
LH:2
end_of_record
SF:/home/ruslan/Facultad/Algo1 2017/TPI2017/TPIalgo1/salaDeReuniones_TPI/src/lib/googletest-master/googletest/include/gtest/internal/gtest-port.h
FN:1157,_ZN7testing8internal10scoped_ptrISt18basic_stringstreamIcSt11char_traitsIcESaIcEEED2Ev
FN:1157,_ZN7testing8internal10scoped_ptrISsED2Ev
FN:1160,_ZNK7testing8internal10scoped_ptrISsEptEv
FN:1161,_ZNK7testing8internal10scoped_ptrISsE3getEv
FN:1169,_ZN7testing8internal10scoped_ptrISt18basic_stringstreamIcSt11char_traitsIcESaIcEEE5resetEPS6_
FN:1169,_ZN7testing8internal10scoped_ptrISsE5resetEPSs
FNDA:0,_ZN7testing8internal10scoped_ptrISsED2Ev
FNDA:0,_ZN7testing8internal10scoped_ptrISt18basic_stringstreamIcSt11char_traitsIcESaIcEEED2Ev
FNDA:0,_ZNK7testing8internal10scoped_ptrISsEptEv
FNDA:0,_ZNK7testing8internal10scoped_ptrISsE3getEv
FNDA:0,_ZN7testing8internal10scoped_ptrISt18basic_stringstreamIcSt11char_traitsIcESaIcEEE5resetEPS6_
FNDA:0,_ZN7testing8internal10scoped_ptrISsE5resetEPSs
FNF:6
FNH:0
DA:1157,0
DA:1160,0
DA:1161,0
DA:1169,0
DA:1170,0
DA:1171,0
DA:1172,0
DA:1174,0
DA:1176,0
LF:9
LH:0
end_of_record
SF:/home/ruslan/Facultad/Algo1 2017/TPI2017/TPIalgo1/salaDeReuniones_TPI/src/tests/silenciosTEST.cpp
FN:7,_Z41__static_initialization_and_destruction_0ii
FN:7,_ZN26silenciosTEST_unAudio_TestD2Ev
FN:7,_ZN26silenciosTEST_unAudio_TestD0Ev
FN:7,_ZN26silenciosTEST_unAudio_Test8TestBodyEv
FN:7,_ZN26silenciosTEST_unAudio_TestC2Ev
FN:34,_ZN34silenciosTEST_silencioAlFinal_TestD2Ev
FN:34,_ZN34silenciosTEST_silencioAlFinal_TestC2Ev
FN:34,_ZN34silenciosTEST_silencioAlFinal_TestD0Ev
FN:34,_ZN34silenciosTEST_silencioAlFinal_Test8TestBodyEv
FN:41,_GLOBAL__sub_I__ZN26silenciosTEST_unAudio_Test10test_info_E
FNDA:2,_ZN26silenciosTEST_unAudio_TestD0Ev
FNDA:2,_ZN26silenciosTEST_unAudio_TestD2Ev
FNDA:2,_ZN26silenciosTEST_unAudio_Test8TestBodyEv
FNDA:2,_ZN26silenciosTEST_unAudio_TestC2Ev
FNDA:2,_ZN34silenciosTEST_silencioAlFinal_TestD0Ev
FNDA:2,_ZN34silenciosTEST_silencioAlFinal_TestD2Ev
FNDA:2,_ZN34silenciosTEST_silencioAlFinal_Test8TestBodyEv
FNDA:2,_ZN34silenciosTEST_silencioAlFinal_TestC2Ev
FNDA:2,_GLOBAL__sub_I__ZN26silenciosTEST_unAudio_Test10test_info_E
FNDA:2,_Z41__static_initialization_and_destruction_0ii
FNF:10
FNH:10
DA:7,10
DA:8,2
DA:9,2
DA:10,2
DA:11,4
DA:13,4
DA:14,2
DA:15,4
DA:16,6
DA:17,4
DA:18,4
DA:21,4
DA:22,4
DA:24,4
DA:26,4
DA:27,4
DA:29,4
DA:31,2
DA:34,10
DA:35,2
DA:36,2
DA:37,2
DA:38,2
DA:39,4
DA:40,4
DA:41,8
LF:26
LH:26
end_of_record
SF:/usr/include/c++/4.8/bits/alloc_traits.h
FN:337,_ZNSt16allocator_traitsISaIiEE9_S_selectIKS0_EENSt9enable_ifIXntsrNS1_15__select_helperIT_EE5valueES6_E4typeERS6_
FN:427,_ZNSt16allocator_traitsISaIiEE37select_on_container_copy_constructionERKS0_
FNDA:0,_ZNSt16allocator_traitsISaIiEE9_S_selectIKS0_EENSt9enable_ifIXntsrNS1_15__select_helperIT_EE5valueES6_E4typeERS6_
FNDA:0,_ZNSt16allocator_traitsISaIiEE37select_on_container_copy_constructionERKS0_
FNF:2
FNH:0
DA:337,0
DA:338,0
DA:427,0
DA:428,0
LF:4
LH:0
end_of_record
SF:/usr/include/c++/4.8/bits/allocator.h
FN:113,_ZNSaIiEC2Ev
FN:113,_ZNSaISt5tupleIIffEEEC2Ev
FN:115,_ZNSaIiEC2ERKS_
FN:115,_ZNSaISt5tupleIIffEEEC2ERKS1_
FN:121,_ZNSaIiED2Ev
FN:121,_ZNSaISt5tupleIIffEEED2Ev
FN:133,_ZSteqIcEbRKSaIT_ES3_
FNDA:0,_ZNSaISt5tupleIIffEEEC2Ev
FNDA:0,_ZNSaIiEC2Ev
FNDA:0,_ZNSaISt5tupleIIffEEEC2ERKS1_
FNDA:0,_ZNSaIiEC2ERKS_
FNDA:0,_ZNSaISt5tupleIIffEEED2Ev
FNDA:0,_ZNSaIiED2Ev
FNDA:0,_ZSteqIcEbRKSaIT_ES3_
FNF:7
FNH:0
DA:113,0
DA:115,0
DA:116,0
DA:121,0
DA:133,0
DA:134,0
LF:6
LH:0
end_of_record
SF:/usr/include/c++/4.8/bits/basic_ios.h
FN:46,_ZSt13__check_facetISt5ctypeIcEERKT_PS3_
FNDA:0,_ZSt13__check_facetISt5ctypeIcEERKT_PS3_
FNF:1
FNH:0
DA:46,0
DA:48,0
DA:49,0
DA:50,0
LF:4
LH:0
end_of_record
SF:/usr/include/c++/4.8/bits/basic_string.h
FN:272,_ZNSs12_Alloc_hiderD2Ev
FN:1721,_ZNSs16_S_construct_auxIPcEES0_T_S1_RKSaIcESt12__false_type
FN:1743,_ZNSs12_S_constructIPcEES0_T_S1_RKSaIcE
FNDA:0,_ZNSs12_Alloc_hiderD2Ev
FNDA:0,_ZNSs16_S_construct_auxIPcEES0_T_S1_RKSaIcESt12__false_type
FNDA:0,_ZNSs12_S_constructIPcEES0_T_S1_RKSaIcE
FNF:3
FNH:0
DA:272,0
DA:1721,0
DA:1725,0
DA:1743,0
DA:1746,0
LF:5
LH:0
end_of_record
SF:/usr/include/c++/4.8/bits/basic_string.tcc
FN:123,_ZNSs12_S_constructIPcEES0_T_S1_RKSaIcESt20forward_iterator_tag
FN:227,_ZNSsC2IPcEET_S1_RKSaIcE
FNDA:0,_ZNSs12_S_constructIPcEES0_T_S1_RKSaIcESt20forward_iterator_tag
FNDA:0,_ZNSsC2IPcEET_S1_RKSaIcE
FNF:2
FNH:0
DA:123,0
DA:128,0
DA:129,0
DA:132,0
DA:133,0
DA:136,0
DA:138,0
DA:140,0
DA:141,=====
DA:143,=====
DA:144,=====
DA:146,0
DA:147,0
DA:227,0
DA:229,0
DA:230,0
LF:16
LH:0
end_of_record
SF:/usr/include/c++/4.8/bits/char_traits.h
FN:242,_ZNSt11char_traitsIcE6assignERcRKc
FN:258,_ZNSt11char_traitsIcE6lengthEPKc
FN:270,_ZNSt11char_traitsIcE4copyEPcPKcm
FNDA:0,_ZNSt11char_traitsIcE6assignERcRKc
FNDA:0,_ZNSt11char_traitsIcE6lengthEPKc
FNDA:0,_ZNSt11char_traitsIcE4copyEPcPKcm
FNF:3
FNH:0
DA:242,0
DA:243,0
DA:258,0
DA:259,0
DA:270,0
DA:271,0
LF:6
LH:0
end_of_record
SF:/usr/include/c++/4.8/bits/ios_base.h
FN:123,_ZStorSt13_Ios_OpenmodeS_
FN:163,_ZStorSt12_Ios_IostateS_
FNDA:0,_ZStorSt13_Ios_OpenmodeS_
FNDA:0,_ZStorSt12_Ios_IostateS_
FNF:2
FNH:0
DA:123,0
DA:124,0
DA:163,0
DA:164,0
LF:4
LH:0
end_of_record
SF:/usr/include/c++/4.8/bits/locale_facets.h
FN:865,_ZNKSt5ctypeIcE5widenEc
FNDA:0,_ZNKSt5ctypeIcE5widenEc
FNF:1
FNH:0
DA:865,0
DA:867,0
DA:868,0
DA:869,0
DA:870,0
LF:5
LH:0
end_of_record
SF:/usr/include/c++/4.8/bits/move.h
FN:47,_ZSt11__addressofISt5tupleIIffEEEPT_RS2_
FN:76,_ZSt7forwardIdEOT_RNSt16remove_referenceIS0_E4typeE
FN:76,_ZSt7forwardIRKSt5tupleIIffEEEOT_RNSt16remove_referenceIS4_E4typeE
FN:76,_ZSt7forwardIiEOT_RNSt16remove_referenceIS0_E4typeE
FN:101,_ZSt4moveIRSt11_Tuple_implILm1EIdEEEONSt16remove_referenceIT_E4typeEOS4_
FN:101,_ZSt4moveIRSt11_Tuple_implILm2EIEEEONSt16remove_referenceIT_E4typeEOS4_
FNDA:0,_ZSt11__addressofISt5tupleIIffEEEPT_RS2_
FNDA:0,_ZSt7forwardIRKSt5tupleIIffEEEOT_RNSt16remove_referenceIS4_E4typeE
FNDA:92,_ZSt7forwardIdEOT_RNSt16remove_referenceIS0_E4typeE
FNDA:0,_ZSt7forwardIiEOT_RNSt16remove_referenceIS0_E4typeE
FNDA:8,_ZSt4moveIRSt11_Tuple_implILm1EIdEEEONSt16remove_referenceIT_E4typeEOS4_
FNDA:0,_ZSt4moveIRSt11_Tuple_implILm2EIEEEONSt16remove_referenceIT_E4typeEOS4_
FNF:6
FNH:2
DA:47,0
DA:50,0
DA:76,92
DA:77,92
DA:101,8
DA:102,8
LF:6
LH:4
end_of_record
SF:/usr/include/c++/4.8/bits/stl_algobase.h
FN:277,_ZSt12__niter_baseIPKiENSt11_Niter_baseIT_E13iterator_typeES3_
FN:277,_ZSt12__niter_baseIPiENSt11_Niter_baseIT_E13iterator_typeES2_
FN:277,_ZSt12__niter_baseIN9__gnu_cxx17__normal_iteratorIPKSt5tupleIIffEESt6vectorIS3_SaIS3_EEEEENSt11_Niter_baseIT_E13iterator_typeESB_
FN:277,_ZSt12__niter_baseIN9__gnu_cxx17__normal_iteratorIPKiSt6vectorIiSaIiEEEEENSt11_Niter_baseIT_E13iterator_typeES9_
FN:288,_ZSt12__miter_baseIN9__gnu_cxx17__normal_iteratorIPKiSt6vectorIiSaIiEEEEENSt11_Miter_baseIT_E13iterator_typeES9_
FN:288,_ZSt12__miter_baseIPKiENSt11_Miter_baseIT_E13iterator_typeES3_
FN:368,_ZNSt11__copy_moveILb0ELb1ESt26random_access_iterator_tagE8__copy_mIiEEPT_PKS3_S6_S4_
FN:379,_ZSt13__copy_move_aILb0EPKiPiET1_T0_S4_S3_
FN:424,_ZSt14__copy_move_a2ILb0EN9__gnu_cxx17__normal_iteratorIPKiSt6vectorIiSaIiEEEEPiET1_T0_SA_S9_
FN:424,_ZSt14__copy_move_a2ILb0EPKiPiET1_T0_S4_S3_
FN:450,_ZSt4copyIN9__gnu_cxx17__normal_iteratorIPKiSt6vectorIiSaIiEEEEPiET0_T_SA_S9_
FN:450,_ZSt4copyIPKiPiET0_T_S4_S3_
FN:794,_ZNSt7__equalILb0EE5equalIPKSt5tupleIIffEES5_EEbT_S6_T0_
FN:817,_ZSt11__equal_auxIPKSt5tupleIIffEES3_EbT_S4_T0_
FN:1021,_ZSt5equalIN9__gnu_cxx17__normal_iteratorIPKSt5tupleIIffEESt6vectorIS3_SaIS3_EEEES9_EbT_SA_T0_
FNDA:0,_ZSt12__niter_baseIPKiENSt11_Niter_baseIT_E13iterator_typeES3_
FNDA:0,_ZSt12__niter_baseIPiENSt11_Niter_baseIT_E13iterator_typeES2_
FNDA:0,_ZSt12__niter_baseIN9__gnu_cxx17__normal_iteratorIPKiSt6vectorIiSaIiEEEEENSt11_Niter_baseIT_E13iterator_typeES9_
FNDA:6,_ZSt12__niter_baseIN9__gnu_cxx17__normal_iteratorIPKSt5tupleIIffEESt6vectorIS3_SaIS3_EEEEENSt11_Niter_baseIT_E13iterator_typeESB_
FNDA:0,_ZSt12__miter_baseIPKiENSt11_Miter_baseIT_E13iterator_typeES3_
FNDA:0,_ZSt12__miter_baseIN9__gnu_cxx17__normal_iteratorIPKiSt6vectorIiSaIiEEEEENSt11_Miter_baseIT_E13iterator_typeES9_
FNDA:0,_ZNSt11__copy_moveILb0ELb1ESt26random_access_iterator_tagE8__copy_mIiEEPT_PKS3_S6_S4_
FNDA:0,_ZSt13__copy_move_aILb0EPKiPiET1_T0_S4_S3_
FNDA:0,_ZSt14__copy_move_a2ILb0EPKiPiET1_T0_S4_S3_
FNDA:0,_ZSt14__copy_move_a2ILb0EN9__gnu_cxx17__normal_iteratorIPKiSt6vectorIiSaIiEEEEPiET1_T0_SA_S9_
FNDA:0,_ZSt4copyIPKiPiET0_T_S4_S3_
FNDA:0,_ZSt4copyIN9__gnu_cxx17__normal_iteratorIPKiSt6vectorIiSaIiEEEEPiET0_T_SA_S9_
FNDA:2,_ZNSt7__equalILb0EE5equalIPKSt5tupleIIffEES5_EEbT_S6_T0_
FNDA:2,_ZSt11__equal_auxIPKSt5tupleIIffEES3_EbT_S4_T0_
FNDA:2,_ZSt5equalIN9__gnu_cxx17__normal_iteratorIPKSt5tupleIIffEESt6vectorIS3_SaIS3_EEEES9_EbT_SA_T0_
FNF:15
FNH:4
DA:277,6
DA:278,6
DA:288,0
DA:289,0
DA:368,0
DA:370,0
DA:371,0
DA:372,0
DA:373,0
DA:379,0
DA:387,0
DA:390,0
DA:424,0
DA:428,0
DA:450,0
DA:460,0
DA:794,2
DA:796,6
DA:797,4
DA:798,0
DA:799,2
DA:817,2
DA:825,2
DA:827,2
DA:1021,2
DA:1033,2
LF:26
LH:11
end_of_record
SF:/usr/include/c++/4.8/bits/stl_construct.h
FN:74,_ZSt10_ConstructISt5tupleIIffEEIRKS1_EEvPT_DpOT0_
FN:112,_ZNSt12_Destroy_auxILb1EE9__destroyIPSt5tupleIIffEEEEvT_S5_
FN:112,_ZNSt12_Destroy_auxILb1EE9__destroyIPiEEvT_S3_
FN:122,_ZSt8_DestroyIPSt5tupleIIffEEEvT_S3_
FN:122,_ZSt8_DestroyIPiEvT_S1_
FN:148,_ZSt8_DestroyIPiiEvT_S1_RSaIT0_E
FN:148,_ZSt8_DestroyIPSt5tupleIIffEES1_EvT_S3_RSaIT0_E
FNDA:0,_ZSt10_ConstructISt5tupleIIffEEIRKS1_EEvPT_DpOT0_
FNDA:0,_ZNSt12_Destroy_auxILb1EE9__destroyIPSt5tupleIIffEEEEvT_S5_
FNDA:0,_ZNSt12_Destroy_auxILb1EE9__destroyIPiEEvT_S3_
FNDA:0,_ZSt8_DestroyIPSt5tupleIIffEEEvT_S3_
FNDA:0,_ZSt8_DestroyIPiEvT_S1_
FNDA:0,_ZSt8_DestroyIPSt5tupleIIffEES1_EvT_S3_RSaIT0_E
FNDA:0,_ZSt8_DestroyIPiiEvT_S1_RSaIT0_E
FNF:7
FNH:0
DA:74,0
DA:75,0
DA:112,0
DA:122,0
DA:126,0
DA:128,0
DA:148,0
DA:151,0
DA:152,0
LF:9
LH:0
end_of_record
SF:/usr/include/c++/4.8/bits/stl_iterator.h
FN:726,_ZN9__gnu_cxx17__normal_iteratorIPKSt5tupleIIffEESt6vectorIS2_SaIS2_EEEC2ERKS4_
FN:726,_ZN9__gnu_cxx17__normal_iteratorIPKiSt6vectorIiSaIiEEEC2ERKS2_
FN:738,_ZNK9__gnu_cxx17__normal_iteratorIPKSt5tupleIIffEESt6vectorIS2_SaIS2_EEEdeEv
FN:746,_ZN9__gnu_cxx17__normal_iteratorIPKSt5tupleIIffEESt6vectorIS2_SaIS2_EEEppEv
FN:790,_ZNK9__gnu_cxx17__normal_iteratorIPKiSt6vectorIiSaIiEEE4baseEv
FN:790,_ZNK9__gnu_cxx17__normal_iteratorIPKSt5tupleIIffEESt6vectorIS2_SaIS2_EEE4baseEv
FN:823,_ZN9__gnu_cxxneIPKSt5tupleIIffEESt6vectorIS2_SaIS2_EEEEbRKNS_17__normal_iteratorIT_T0_EESD_
FNDA:0,_ZN9__gnu_cxx17__normal_iteratorIPKSt5tupleIIffEESt6vectorIS2_SaIS2_EEEC2ERKS4_
FNDA:0,_ZN9__gnu_cxx17__normal_iteratorIPKiSt6vectorIiSaIiEEEC2ERKS2_
FNDA:0,_ZNK9__gnu_cxx17__normal_iteratorIPKSt5tupleIIffEESt6vectorIS2_SaIS2_EEEdeEv
FNDA:0,_ZN9__gnu_cxx17__normal_iteratorIPKSt5tupleIIffEESt6vectorIS2_SaIS2_EEEppEv
FNDA:0,_ZNK9__gnu_cxx17__normal_iteratorIPKiSt6vectorIiSaIiEEE4baseEv
FNDA:0,_ZNK9__gnu_cxx17__normal_iteratorIPKSt5tupleIIffEESt6vectorIS2_SaIS2_EEE4baseEv
FNDA:0,_ZN9__gnu_cxxneIPKSt5tupleIIffEESt6vectorIS2_SaIS2_EEEEbRKNS_17__normal_iteratorIT_T0_EESD_
FNF:7
FNH:0
DA:726,0
DA:738,0
DA:739,0
DA:746,0
DA:748,0
DA:749,0
DA:790,0
DA:791,0
DA:823,0
DA:825,0
LF:10
LH:0
end_of_record
SF:/usr/include/c++/4.8/bits/stl_iterator_base_funcs.h
FN:90,_ZSt10__distanceIPKiENSt15iterator_traitsIT_E15difference_typeES3_S3_St26random_access_iterator_tag
FN:90,_ZSt10__distanceIPcENSt15iterator_traitsIT_E15difference_typeES2_S2_St26random_access_iterator_tag
FN:90,_ZSt10__distanceIPKSt5tupleIIffEEENSt15iterator_traitsIT_E15difference_typeES5_S5_St26random_access_iterator_tag
FN:114,_ZSt8distanceIPcENSt15iterator_traitsIT_E15difference_typeES2_S2_
FN:114,_ZSt8distanceIPKiENSt15iterator_traitsIT_E15difference_typeES3_S3_
FN:114,_ZSt8distanceIPKSt5tupleIIffEEENSt15iterator_traitsIT_E15difference_typeES5_S5_
FNDA:0,_ZSt10__distanceIPcENSt15iterator_traitsIT_E15difference_typeES2_S2_St26random_access_iterator_tag
FNDA:4,_ZSt10__distanceIPKSt5tupleIIffEEENSt15iterator_traitsIT_E15difference_typeES5_S5_St26random_access_iterator_tag
FNDA:0,_ZSt10__distanceIPKiENSt15iterator_traitsIT_E15difference_typeES3_S3_St26random_access_iterator_tag
FNDA:0,_ZSt8distanceIPcENSt15iterator_traitsIT_E15difference_typeES2_S2_
FNDA:4,_ZSt8distanceIPKSt5tupleIIffEEENSt15iterator_traitsIT_E15difference_typeES5_S5_
FNDA:0,_ZSt8distanceIPKiENSt15iterator_traitsIT_E15difference_typeES3_S3_
FNF:6
FNH:2
DA:90,4
DA:96,4
DA:114,4
DA:118,4
LF:4
LH:4
end_of_record
SF:/usr/include/c++/4.8/bits/stl_iterator_base_types.h
FN:201,_ZSt19__iterator_categoryIPcENSt15iterator_traitsIT_E17iterator_categoryERKS2_
FN:201,_ZSt19__iterator_categoryIPKSt5tupleIIffEEENSt15iterator_traitsIT_E17iterator_categoryERKS5_
FN:201,_ZSt19__iterator_categoryIPKiENSt15iterator_traitsIT_E17iterator_categoryERKS3_
FN:212,_ZNSt10_Iter_baseIN9__gnu_cxx17__normal_iteratorIPKiSt6vectorIiSaIiEEEELb0EE7_S_baseES7_
FN:212,_ZNSt10_Iter_baseIPiLb0EE7_S_baseES0_
FN:212,_ZNSt10_Iter_baseIPKiLb0EE7_S_baseES1_
FN:220,_ZNSt10_Iter_baseIN9__gnu_cxx17__normal_iteratorIPKiSt6vectorIiSaIiEEEELb1EE7_S_baseES7_
FN:220,_ZNSt10_Iter_baseIN9__gnu_cxx17__normal_iteratorIPKSt5tupleIIffEESt6vectorIS3_SaIS3_EEEELb1EE7_S_baseES9_
FNDA:0,_ZSt19__iterator_categoryIPcENSt15iterator_traitsIT_E17iterator_categoryERKS2_
FNDA:4,_ZSt19__iterator_categoryIPKSt5tupleIIffEEENSt15iterator_traitsIT_E17iterator_categoryERKS5_
FNDA:0,_ZSt19__iterator_categoryIPKiENSt15iterator_traitsIT_E17iterator_categoryERKS3_
FNDA:0,_ZNSt10_Iter_baseIPiLb0EE7_S_baseES0_
FNDA:0,_ZNSt10_Iter_baseIPKiLb0EE7_S_baseES1_
FNDA:0,_ZNSt10_Iter_baseIN9__gnu_cxx17__normal_iteratorIPKiSt6vectorIiSaIiEEEELb0EE7_S_baseES7_
FNDA:0,_ZNSt10_Iter_baseIN9__gnu_cxx17__normal_iteratorIPKiSt6vectorIiSaIiEEEELb1EE7_S_baseES7_
FNDA:6,_ZNSt10_Iter_baseIN9__gnu_cxx17__normal_iteratorIPKSt5tupleIIffEESt6vectorIS3_SaIS3_EEEELb1EE7_S_baseES9_
FNF:8
FNH:2
DA:201,4
DA:202,4
DA:212,0
DA:213,0
DA:220,6
DA:221,6
LF:6
LH:4
end_of_record
SF:/usr/include/c++/4.8/bits/stl_uninitialized.h
FN:68,_ZNSt20__uninitialized_copyILb0EE13__uninit_copyIPKSt5tupleIIffEEPS3_EET0_T_S8_S7_
FN:91,_ZNSt20__uninitialized_copyILb1EE13__uninit_copyIN9__gnu_cxx17__normal_iteratorIPKiSt6vectorIiSaIiEEEEPiEET0_T_SC_SB_
FN:91,_ZNSt20__uninitialized_copyILb1EE13__uninit_copyIPKiPiEET0_T_S6_S5_
FN:107,_ZSt18uninitialized_copyIPKSt5tupleIIffEEPS1_ET0_T_S6_S5_
FN:107,_ZSt18uninitialized_copyIPKiPiET0_T_S4_S3_
FN:107,_ZSt18uninitialized_copyIN9__gnu_cxx17__normal_iteratorIPKiSt6vectorIiSaIiEEEEPiET0_T_SA_S9_
FN:256,_ZSt22__uninitialized_copy_aIN9__gnu_cxx17__normal_iteratorIPKiSt6vectorIiSaIiEEEEPiiET0_T_SA_S9_RSaIT1_E
FN:256,_ZSt22__uninitialized_copy_aIPKiPiiET0_T_S4_S3_RSaIT1_E
FN:256,_ZSt22__uninitialized_copy_aIPKSt5tupleIIffEEPS1_S1_ET0_T_S6_S5_RSaIT1_E
FNDA:4,_ZNSt20__uninitialized_copyILb0EE13__uninit_copyIPKSt5tupleIIffEEPS3_EET0_T_S8_S7_
FNDA:0,_ZNSt20__uninitialized_copyILb1EE13__uninit_copyIPKiPiEET0_T_S6_S5_
FNDA:0,_ZNSt20__uninitialized_copyILb1EE13__uninit_copyIN9__gnu_cxx17__normal_iteratorIPKiSt6vectorIiSaIiEEEEPiEET0_T_SC_SB_
FNDA:4,_ZSt18uninitialized_copyIPKSt5tupleIIffEEPS1_ET0_T_S6_S5_
FNDA:0,_ZSt18uninitialized_copyIPKiPiET0_T_S4_S3_
FNDA:0,_ZSt18uninitialized_copyIN9__gnu_cxx17__normal_iteratorIPKiSt6vectorIiSaIiEEEEPiET0_T_SA_S9_
FNDA:4,_ZSt22__uninitialized_copy_aIPKSt5tupleIIffEEPS1_S1_ET0_T_S6_S5_RSaIT1_E
FNDA:0,_ZSt22__uninitialized_copy_aIPKiPiiET0_T_S4_S3_RSaIT1_E
FNDA:0,_ZSt22__uninitialized_copy_aIN9__gnu_cxx17__normal_iteratorIPKiSt6vectorIiSaIiEEEEPiiET0_T_SA_S9_RSaIT1_E
FNF:9
FNH:3
DA:68,4
DA:71,4
DA:74,12
DA:75,8
DA:76,4
DA:91,0
DA:93,0
DA:107,4
DA:117,4
DA:256,4
DA:258,4
LF:11
LH:9
end_of_record
SF:/usr/include/c++/4.8/bits/stl_vector.h
FN:79,_ZNSt12_Vector_baseISt5tupleIIffEESaIS1_EE12_Vector_implD2Ev
FN:79,_ZNSt12_Vector_baseIiSaIiEE12_Vector_implD2Ev
FN:90,_ZNSt12_Vector_baseIiSaIiEE12_Vector_implC2ERKS0_
FN:90,_ZNSt12_Vector_baseISt5tupleIIffEESaIS1_EE12_Vector_implC2ERKS2_
FN:113,_ZNSt12_Vector_baseIiSaIiEE19_M_get_Tp_allocatorEv
FN:113,_ZNSt12_Vector_baseISt5tupleIIffEESaIS1_EE19_M_get_Tp_allocatorEv
FN:117,_ZNKSt12_Vector_baseIiSaIiEE19_M_get_Tp_allocatorEv
FN:127,_ZNSt12_Vector_baseISt5tupleIIffEESaIS1_EEC2ERKS2_
FN:127,_ZNSt12_Vector_baseIiSaIiEEC2ERKS0_
FN:134,_ZNSt12_Vector_baseIiSaIiEEC2EmRKS0_
FN:159,_ZNSt12_Vector_baseISt5tupleIIffEESaIS1_EED2Ev
FN:159,_ZNSt12_Vector_baseIiSaIiEED2Ev
FN:167,_ZNSt12_Vector_baseIiSaIiEE11_M_allocateEm
FN:167,_ZNSt12_Vector_baseISt5tupleIIffEESaIS1_EE11_M_allocateEm
FN:171,_ZNSt12_Vector_baseIiSaIiEE13_M_deallocateEPim
FN:171,_ZNSt12_Vector_baseISt5tupleIIffEESaIS1_EE13_M_deallocateEPS1_m
FN:179,_ZNSt12_Vector_baseIiSaIiEE17_M_create_storageEm
FN:310,_ZNSt6vectorIiSaIiEEC2ERKS1_
FN:364,_ZNSt6vectorIiSaIiEEC2ESt16initializer_listIiERKS0_
FN:364,_ZNSt6vectorISt5tupleIIffEESaIS1_EEC2ESt16initializer_listIS1_ERKS2_
FN:414,_ZNSt6vectorIiSaIiEED2Ev
FN:414,_ZNSt6vectorISt5tupleIIffEESaIS1_EED2Ev
FN:547,_ZNKSt6vectorISt5tupleIIffEESaIS1_EE5beginEv
FN:547,_ZNKSt6vectorIiSaIiEE5beginEv
FN:565,_ZNKSt6vectorIiSaIiEE3endEv
FN:565,_ZNKSt6vectorISt5tupleIIffEESaIS1_EE3endEv
FN:645,_ZNKSt6vectorISt5tupleIIffEESaIS1_EE4sizeEv
FN:645,_ZNKSt6vectorIiSaIiEE4sizeEv
FN:770,_ZNSt6vectorISt5tupleIIffEESaIS1_EEixEm
FN:1197,_ZNSt6vectorIiSaIiEE19_M_range_initializeIPKiEEvT_S5_St20forward_iterator_tag
FN:1197,_ZNSt6vectorISt5tupleIIffEESaIS1_EE19_M_range_initializeIPKS1_EEvT_S7_St20forward_iterator_tag
FN:1404,_ZSteqISt5tupleIIffEESaIS1_EEbRKSt6vectorIT_T0_ES8_
FNDA:0,_ZNSt12_Vector_baseISt5tupleIIffEESaIS1_EE12_Vector_implD2Ev
FNDA:0,_ZNSt12_Vector_baseIiSaIiEE12_Vector_implD2Ev
FNDA:0,_ZNSt12_Vector_baseISt5tupleIIffEESaIS1_EE12_Vector_implC2ERKS2_
FNDA:0,_ZNSt12_Vector_baseIiSaIiEE12_Vector_implC2ERKS0_
FNDA:0,_ZNSt12_Vector_baseISt5tupleIIffEESaIS1_EE19_M_get_Tp_allocatorEv
FNDA:0,_ZNSt12_Vector_baseIiSaIiEE19_M_get_Tp_allocatorEv
FNDA:0,_ZNKSt12_Vector_baseIiSaIiEE19_M_get_Tp_allocatorEv
FNDA:4,_ZNSt12_Vector_baseISt5tupleIIffEESaIS1_EEC2ERKS2_
FNDA:0,_ZNSt12_Vector_baseIiSaIiEEC2ERKS0_
FNDA:0,_ZNSt12_Vector_baseIiSaIiEEC2EmRKS0_
FNDA:0,_ZNSt12_Vector_baseISt5tupleIIffEESaIS1_EED2Ev
FNDA:0,_ZNSt12_Vector_baseIiSaIiEED2Ev
FNDA:0,_ZNSt12_Vector_baseISt5tupleIIffEESaIS1_EE11_M_allocateEm
FNDA:0,_ZNSt12_Vector_baseIiSaIiEE11_M_allocateEm
FNDA:0,_ZNSt12_Vector_baseISt5tupleIIffEESaIS1_EE13_M_deallocateEPS1_m
FNDA:0,_ZNSt12_Vector_baseIiSaIiEE13_M_deallocateEPim
FNDA:0,_ZNSt12_Vector_baseIiSaIiEE17_M_create_storageEm
FNDA:0,_ZNSt6vectorIiSaIiEEC2ERKS1_
FNDA:4,_ZNSt6vectorISt5tupleIIffEESaIS1_EEC2ESt16initializer_listIS1_ERKS2_
FNDA:0,_ZNSt6vectorIiSaIiEEC2ESt16initializer_listIiERKS0_
FNDA:0,_ZNSt6vectorISt5tupleIIffEESaIS1_EED2Ev
FNDA:0,_ZNSt6vectorIiSaIiEED2Ev
FNDA:0,_ZNKSt6vectorISt5tupleIIffEESaIS1_EE5beginEv
FNDA:0,_ZNKSt6vectorIiSaIiEE5beginEv
FNDA:0,_ZNKSt6vectorISt5tupleIIffEESaIS1_EE3endEv
FNDA:0,_ZNKSt6vectorIiSaIiEE3endEv
FNDA:0,_ZNKSt6vectorIiSaIiEE4sizeEv
FNDA:0,_ZNKSt6vectorISt5tupleIIffEESaIS1_EE4sizeEv
FNDA:0,_ZNSt6vectorISt5tupleIIffEESaIS1_EEixEm
FNDA:4,_ZNSt6vectorISt5tupleIIffEESaIS1_EE19_M_range_initializeIPKS1_EEvT_S7_St20forward_iterator_tag
FNDA:0,_ZNSt6vectorIiSaIiEE19_M_range_initializeIPKiEEvT_S5_St20forward_iterator_tag
FNDA:2,_ZSteqISt5tupleIIffEESaIS1_EEbRKSt6vectorIT_T0_ES8_
FNF:32
FNH:4
DA:79,0
DA:90,0
DA:91,0
DA:92,0
DA:113,0
DA:114,0
DA:117,0
DA:118,0
DA:127,4
DA:128,4
DA:134,0
DA:135,0
DA:136,0
DA:159,0
DA:160,0
DA:161,0
DA:167,0
DA:168,0
DA:171,0
DA:173,0
DA:174,0
DA:175,0
DA:179,0
DA:181,0
DA:182,0
DA:183,0
DA:184,0
DA:310,0
DA:312,0
DA:313,0
DA:316,0
DA:317,0
DA:364,4
DA:366,4
DA:368,4
DA:369,8
DA:370,4
DA:414,0
DA:415,0
DA:416,0
DA:547,0
DA:548,0
DA:565,0
DA:566,0
DA:645,0
DA:646,0
DA:770,0
DA:771,0
DA:1197,4
DA:1200,4
DA:1201,4
DA:1202,4
DA:1203,4
DA:1206,4
DA:1207,4
DA:1404,2
DA:1405,2
DA:1406,2
LF:58
LH:17
end_of_record
SF:/usr/include/c++/4.8/cmath
FN:279,_ZSt5floorf
FNDA:16,_ZSt5floorf
FNF:1
FNH:1
DA:279,16
DA:280,16
LF:2
LH:2
end_of_record
SF:/usr/include/c++/4.8/ext/alloc_traits.h
FN:166,_ZN9__gnu_cxx14__alloc_traitsISaIiEE17_S_select_on_copyERKS1_
FNDA:0,_ZN9__gnu_cxx14__alloc_traitsISaIiEE17_S_select_on_copyERKS1_
FNF:1
FNH:0
DA:166,0
DA:167,0
LF:2
LH:0
end_of_record
SF:/usr/include/c++/4.8/ext/atomicity.h
FN:48,_ZN9__gnu_cxxL18__exchange_and_addEPVii
FN:65,_ZN9__gnu_cxxL25__exchange_and_add_singleEPii
FN:78,_ZN9__gnu_cxxL27__exchange_and_add_dispatchEPii
FNDA:0,_ZN9__gnu_cxxL18__exchange_and_addEPVii
FNDA:0,_ZN9__gnu_cxxL25__exchange_and_add_singleEPii
FNDA:0,_ZN9__gnu_cxxL27__exchange_and_add_dispatchEPii
FNF:3
FNH:0
DA:48,0
DA:49,0
DA:65,0
DA:67,0
DA:68,0
DA:69,0
DA:78,0
DA:81,0
DA:82,0
DA:84,0
LF:10
LH:0
end_of_record
SF:/usr/include/c++/4.8/ext/new_allocator.h
FN:79,_ZN9__gnu_cxx13new_allocatorIcEC2Ev
FN:79,_ZN9__gnu_cxx13new_allocatorISt5tupleIIffEEEC2Ev
FN:79,_ZN9__gnu_cxx13new_allocatorIiEC2Ev
FN:81,_ZN9__gnu_cxx13new_allocatorISt5tupleIIffEEEC2ERKS3_
FN:81,_ZN9__gnu_cxx13new_allocatorIiEC2ERKS1_
FN:81,_ZN9__gnu_cxx13new_allocatorIcEC2ERKS1_
FN:86,_ZN9__gnu_cxx13new_allocatorISt5tupleIIffEEED2Ev
FN:86,_ZN9__gnu_cxx13new_allocatorIiED2Ev
FN:86,_ZN9__gnu_cxx13new_allocatorIcED2Ev
FN:99,_ZN9__gnu_cxx13new_allocatorISt5tupleIIffEEE8allocateEmPKv
FN:99,_ZN9__gnu_cxx13new_allocatorIiE8allocateEmPKv
FN:109,_ZN9__gnu_cxx13new_allocatorISt5tupleIIffEEE10deallocateEPS2_m
FN:109,_ZN9__gnu_cxx13new_allocatorIiE10deallocateEPim
FN:113,_ZNK9__gnu_cxx13new_allocatorIiE8max_sizeEv
FN:113,_ZNK9__gnu_cxx13new_allocatorISt5tupleIIffEEE8max_sizeEv
FNDA:0,_ZN9__gnu_cxx13new_allocatorISt5tupleIIffEEEC2Ev
FNDA:0,_ZN9__gnu_cxx13new_allocatorIiEC2Ev
FNDA:0,_ZN9__gnu_cxx13new_allocatorIcEC2Ev
FNDA:0,_ZN9__gnu_cxx13new_allocatorISt5tupleIIffEEEC2ERKS3_
FNDA:0,_ZN9__gnu_cxx13new_allocatorIiEC2ERKS1_
FNDA:0,_ZN9__gnu_cxx13new_allocatorIcEC2ERKS1_
FNDA:0,_ZN9__gnu_cxx13new_allocatorISt5tupleIIffEEED2Ev
FNDA:0,_ZN9__gnu_cxx13new_allocatorIiED2Ev
FNDA:0,_ZN9__gnu_cxx13new_allocatorIcED2Ev
FNDA:0,_ZN9__gnu_cxx13new_allocatorISt5tupleIIffEEE8allocateEmPKv
FNDA:0,_ZN9__gnu_cxx13new_allocatorIiE8allocateEmPKv
FNDA:0,_ZN9__gnu_cxx13new_allocatorISt5tupleIIffEEE10deallocateEPS2_m
FNDA:0,_ZN9__gnu_cxx13new_allocatorIiE10deallocateEPim
FNDA:0,_ZNK9__gnu_cxx13new_allocatorISt5tupleIIffEEE8max_sizeEv
FNDA:0,_ZNK9__gnu_cxx13new_allocatorIiE8max_sizeEv
FNF:15
FNH:0
DA:79,0
DA:81,0
DA:86,0
DA:99,0
DA:101,0
DA:102,0
DA:104,0
DA:109,0
DA:110,0
DA:113,0
DA:114,0
LF:11
LH:0
end_of_record
SF:/usr/include/c++/4.8/ext/type_traits.h
FN:150,_ZN9__gnu_cxx17__is_null_pointerIcEEbPT_
FNDA:0,_ZN9__gnu_cxx17__is_null_pointerIcEEbPT_
FNF:1
FNH:0
DA:150,0
DA:151,0
LF:2
LH:0
end_of_record
SF:/usr/include/c++/4.8/initializer_list
FN:71,_ZNKSt16initializer_listISt5tupleIIffEEE4sizeEv
FN:71,_ZNKSt16initializer_listIiE4sizeEv
FN:75,_ZNKSt16initializer_listISt5tupleIIffEEE5beginEv
FN:75,_ZNKSt16initializer_listIiE5beginEv
FN:79,_ZNKSt16initializer_listISt5tupleIIffEEE3endEv
FN:79,_ZNKSt16initializer_listIiE3endEv
FNDA:4,_ZNKSt16initializer_listISt5tupleIIffEEE4sizeEv
FNDA:0,_ZNKSt16initializer_listIiE4sizeEv
FNDA:8,_ZNKSt16initializer_listISt5tupleIIffEEE5beginEv
FNDA:0,_ZNKSt16initializer_listIiE5beginEv
FNDA:4,_ZNKSt16initializer_listISt5tupleIIffEEE3endEv
FNDA:0,_ZNKSt16initializer_listIiE3endEv
FNF:6
FNH:3
DA:71,4
DA:75,8
DA:79,4
LF:3
LH:3
end_of_record
SF:/usr/include/c++/4.8/iostream
DA:74,2
LF:1
LH:1
end_of_record
SF:/usr/include/c++/4.8/new
FN:109,_ZnwmPv
FNDA:0,_ZnwmPv
FNF:1
FNH:0
DA:109,0
DA:110,0
LF:2
LH:0
end_of_record
SF:/usr/include/c++/4.8/sstream
FN:64,_ZNSt15basic_stringbufIcSt11char_traitsIcESaIcEED2Ev
FN:64,_ZNSt15basic_stringbufIcSt11char_traitsIcESaIcEED0Ev
FNDA:0,_ZNSt15basic_stringbufIcSt11char_traitsIcESaIcEED0Ev
FNDA:0,_ZNSt15basic_stringbufIcSt11char_traitsIcESaIcEED2Ev
FNF:2
FNH:0
DA:64,0
LF:1
LH:0
end_of_record
SF:/usr/include/c++/4.8/tuple
FN:141,_ZNSt10_Head_baseILm0EdLb0EEC2IdEEOT_
FN:141,_ZNSt10_Head_baseILm0EiLb0EEC2IiEEOT_
FN:141,_ZNSt10_Head_baseILm1EdLb0EEC2IdEEOT_
FN:141,_ZNSt10_Head_baseILm1EfLb0EEC2IdEEOT_
FN:141,_ZNSt10_Head_baseILm0EfLb0EEC2IiEEOT_
FN:141,_ZNSt10_Head_baseILm0EfLb0EEC2IdEEOT_
FN:169,_ZNSt10_Head_baseILm1EdLb0EE7_M_headERS0_
FN:169,_ZNSt10_Head_baseILm1EfLb0EE7_M_headERS0_
FN:169,_ZNSt10_Head_baseILm0EdLb0EE7_M_headERS0_
FN:169,_ZNSt10_Head_baseILm0EiLb0EE7_M_headERS0_
FN:169,_ZNSt10_Head_baseILm0EfLb0EE7_M_headERS0_
FN:172,_ZNSt10_Head_baseILm1EfLb0EE7_M_headERKS0_
FN:172,_ZNSt10_Head_baseILm0EfLb0EE7_M_headERKS0_
FN:197,_ZNSt11_Tuple_implILm2EIEEC2Ev
FN:241,_ZNSt11_Tuple_implILm0EIddEE7_M_headERS0_
FN:241,_ZNSt11_Tuple_implILm0EIidEE7_M_headERS0_
FN:241,_ZNSt11_Tuple_implILm1EIfEE7_M_headERS0_
FN:241,_ZNSt11_Tuple_implILm0EIffEE7_M_headERS0_
FN:241,_ZNSt11_Tuple_implILm1EIdEE7_M_headERS0_
FN:244,_ZNSt11_Tuple_implILm0EIffEE7_M_headERKS0_
FN:244,_ZNSt11_Tuple_implILm1EIfEE7_M_headERKS0_
FN:247,_ZNSt11_Tuple_implILm0EIddEE7_M_tailERS0_
FN:247,_ZNSt11_Tuple_implILm1EIdEE7_M_tailERS0_
FN:247,_ZNSt11_Tuple_implILm0EIidEE7_M_tailERS0_
FN:262,_ZNSt11_Tuple_implILm1EIdEEC2IdIEvEEOT_DpOT0_
FN:262,_ZNSt11_Tuple_implILm0EIddEEC2IdIdEvEEOT_DpOT0_
FN:262,_ZNSt11_Tuple_implILm0EIidEEC2IiIdEvEEOT_DpOT0_
FN:281,_ZNSt11_Tuple_implILm0EIffEEC2IiIdEEEOS_ILm0EIT_DpT0_EE
FN:281,_ZNSt11_Tuple_implILm1EIfEEC2IdIEEEOS_ILm1EIT_DpT0_EE
FN:281,_ZNSt11_Tuple_implILm0EIffEEC2IdIdEEEOS_ILm0EIT_DpT0_EE
FN:539,_ZNSt5tupleIIidEEC1IidvEEOT_OT0_
FN:539,_ZNSt5tupleIIddEEC1IddvEEOT_OT0_
FN:555,_ZNSt5tupleIIffEEC1IidvEEOS_IIT_T0_EE
FN:555,_ZNSt5tupleIIffEEC1IddvEEOS_IIT_T0_EE
FN:744,_ZSt12__get_helperILm0EfIfEENSt9__add_refIT0_E4typeERSt11_Tuple_implIXT_EIS1_DpT1_EE
FN:744,_ZSt12__get_helperILm1EfIEENSt9__add_refIT0_E4typeERSt11_Tuple_implIXT_EIS1_DpT1_EE
FN:749,_ZSt12__get_helperILm0EfIfEENSt11__add_c_refIT0_E4typeERKSt11_Tuple_implIXT_EIS1_DpT1_EE
FN:749,_ZSt12__get_helperILm1EfIEENSt11__add_c_refIT0_E4typeERKSt11_Tuple_implIXT_EIS1_DpT1_EE
FN:759,_ZSt3getILm0EIffEENSt9__add_refINSt13tuple_elementIXT_ESt5tupleIIDpT0_EEE4typeEE4typeERS5_
FN:759,_ZSt3getILm1EIffEENSt9__add_refINSt13tuple_elementIXT_ESt5tupleIIDpT0_EEE4typeEE4typeERS5_
FN:766,_ZSt3getILm1EIffEENSt11__add_c_refINSt13tuple_elementIXT_ESt5tupleIIDpT0_EEE4typeEE4typeERKS5_
FN:766,_ZSt3getILm0EIffEENSt11__add_c_refINSt13tuple_elementIXT_ESt5tupleIIDpT0_EEE4typeEE4typeERKS5_
FN:786,_ZNSt15__tuple_compareILm0ELm1ELm2ESt5tupleIIffEES1_E4__eqERKS1_S4_
FN:786,_ZNSt15__tuple_compareILm0ELm0ELm2ESt5tupleIIffEES1_E4__eqERKS1_S4_
FN:805,_ZNSt15__tuple_compareILm0ELm2ELm2ESt5tupleIIffEES1_E4__eqERKS1_S4_
FN:813,_ZSteqIIffEIffEEbRKSt5tupleIIDpT_EERKS0_IIDpT0_EE
FN:860,_ZSt10make_tupleIIddEESt5tupleIIDpNSt17__decay_and_stripIT_E6__typeEEEDpOS2_
FN:860,_ZSt10make_tupleIIidEESt5tupleIIDpNSt17__decay_and_stripIT_E6__typeEEEDpOS2_
FNDA:6,_ZNSt10_Head_baseILm0EfLb0EEC2IdEEOT_
FNDA:0,_ZNSt10_Head_baseILm0EfLb0EEC2IiEEOT_
FNDA:8,_ZNSt10_Head_baseILm1EfLb0EEC2IdEEOT_
FNDA:6,_ZNSt10_Head_baseILm0EdLb0EEC2IdEEOT_
FNDA:0,_ZNSt10_Head_baseILm0EiLb0EEC2IiEEOT_
FNDA:8,_ZNSt10_Head_baseILm1EdLb0EEC2IdEEOT_
FNDA:0,_ZNSt10_Head_baseILm1EfLb0EE7_M_headERS0_
FNDA:0,_ZNSt10_Head_baseILm0EfLb0EE7_M_headERS0_
FNDA:6,_ZNSt10_Head_baseILm0EdLb0EE7_M_headERS0_
FNDA:0,_ZNSt10_Head_baseILm0EiLb0EE7_M_headERS0_
FNDA:8,_ZNSt10_Head_baseILm1EdLb0EE7_M_headERS0_
FNDA:0,_ZNSt10_Head_baseILm0EfLb0EE7_M_headERKS0_
FNDA:0,_ZNSt10_Head_baseILm1EfLb0EE7_M_headERKS0_
FNDA:0,_ZNSt11_Tuple_implILm2EIEEC2Ev
FNDA:0,_ZNSt11_Tuple_implILm1EIfEE7_M_headERS0_
FNDA:0,_ZNSt11_Tuple_implILm0EIffEE7_M_headERS0_
FNDA:6,_ZNSt11_Tuple_implILm0EIddEE7_M_headERS0_
FNDA:2,_ZNSt11_Tuple_implILm0EIidEE7_M_headERS0_
FNDA:8,_ZNSt11_Tuple_implILm1EIdEE7_M_headERS0_
FNDA:0,_ZNSt11_Tuple_implILm0EIffEE7_M_headERKS0_
FNDA:0,_ZNSt11_Tuple_implILm1EIfEE7_M_headERKS0_
FNDA:6,_ZNSt11_Tuple_implILm0EIddEE7_M_tailERS0_
FNDA:2,_ZNSt11_Tuple_implILm0EIidEE7_M_tailERS0_
FNDA:8,_ZNSt11_Tuple_implILm1EIdEE7_M_tailERS0_
FNDA:6,_ZNSt11_Tuple_implILm0EIddEEC2IdIdEvEEOT_DpOT0_
FNDA:2,_ZNSt11_Tuple_implILm0EIidEEC2IiIdEvEEOT_DpOT0_
FNDA:8,_ZNSt11_Tuple_implILm1EIdEEC2IdIEvEEOT_DpOT0_
FNDA:6,_ZNSt11_Tuple_implILm0EIffEEC2IdIdEEEOS_ILm0EIT_DpT0_EE
FNDA:2,_ZNSt11_Tuple_implILm0EIffEEC2IiIdEEEOS_ILm0EIT_DpT0_EE
FNDA:8,_ZNSt11_Tuple_implILm1EIfEEC2IdIEEEOS_ILm1EIT_DpT0_EE
FNDA:6,_ZNSt5tupleIIddEEC1IddvEEOT_OT0_
FNDA:2,_ZNSt5tupleIIidEEC1IidvEEOT_OT0_
FNDA:6,_ZNSt5tupleIIffEEC1IddvEEOS_IIT_T0_EE
FNDA:2,_ZNSt5tupleIIffEEC1IidvEEOS_IIT_T0_EE
FNDA:0,_ZSt12__get_helperILm1EfIEENSt9__add_refIT0_E4typeERSt11_Tuple_implIXT_EIS1_DpT1_EE
FNDA:0,_ZSt12__get_helperILm0EfIfEENSt9__add_refIT0_E4typeERSt11_Tuple_implIXT_EIS1_DpT1_EE
FNDA:8,_ZSt12__get_helperILm0EfIfEENSt11__add_c_refIT0_E4typeERKSt11_Tuple_implIXT_EIS1_DpT1_EE
FNDA:8,_ZSt12__get_helperILm1EfIEENSt11__add_c_refIT0_E4typeERKSt11_Tuple_implIXT_EIS1_DpT1_EE
FNDA:0,_ZSt3getILm1EIffEENSt9__add_refINSt13tuple_elementIXT_ESt5tupleIIDpT0_EEE4typeEE4typeERS5_
FNDA:0,_ZSt3getILm0EIffEENSt9__add_refINSt13tuple_elementIXT_ESt5tupleIIDpT0_EEE4typeEE4typeERS5_
FNDA:8,_ZSt3getILm0EIffEENSt11__add_c_refINSt13tuple_elementIXT_ESt5tupleIIDpT0_EEE4typeEE4typeERKS5_
FNDA:8,_ZSt3getILm1EIffEENSt11__add_c_refINSt13tuple_elementIXT_ESt5tupleIIDpT0_EEE4typeEE4typeERKS5_
FNDA:4,_ZNSt15__tuple_compareILm0ELm0ELm2ESt5tupleIIffEES1_E4__eqERKS1_S4_
FNDA:4,_ZNSt15__tuple_compareILm0ELm1ELm2ESt5tupleIIffEES1_E4__eqERKS1_S4_
FNDA:4,_ZNSt15__tuple_compareILm0ELm2ELm2ESt5tupleIIffEES1_E4__eqERKS1_S4_
FNDA:4,_ZSteqIIffEIffEEbRKSt5tupleIIDpT_EERKS0_IIDpT0_EE
FNDA:6,_ZSt10make_tupleIIddEESt5tupleIIDpNSt17__decay_and_stripIT_E6__typeEEEDpOS2_
FNDA:2,_ZSt10make_tupleIIidEESt5tupleIIDpNSt17__decay_and_stripIT_E6__typeEEEDpOS2_
FNF:48
FNH:32
DA:141,28
DA:142,28
DA:169,14
DA:172,0
DA:197,0
DA:241,16
DA:244,0
DA:247,16
DA:262,16
DA:263,8
DA:264,16
DA:281,16
DA:283,16
DA:285,16
DA:539,8
DA:540,8
DA:555,8
DA:556,8
DA:744,0
DA:745,0
DA:749,16
DA:750,16
DA:759,0
DA:760,0
DA:766,16
DA:767,16
DA:786,8
DA:788,16
DA:789,16
DA:805,4
DA:813,4
DA:819,4
DA:860,8
DA:864,8
LF:34
LH:27
end_of_record
SF:/usr/include/x86_64-linux-gnu/c++/4.8/bits/gthr-default.h
FN:247,_ZL18__gthread_active_pv
FNDA:0,_ZL18__gthread_active_pv
FNF:1
FNH:0
DA:247,0
DA:251,0
LF:2
LH:0
end_of_record
TN:
SF:/home/ruslan/Facultad/Algo1 2017/TPI2017/TPIalgo1/salaDeReuniones_TPI/src/lib/googletest-master/googletest/include/gtest/gtest-message.h
FN:85,_ZN7testing7MessageD2Ev
FNDA:0,_ZN7testing7MessageD2Ev
FNF:1
FNH:0
DA:85,0
LF:1
LH:0
end_of_record
SF:/home/ruslan/Facultad/Algo1 2017/TPI2017/TPIalgo1/salaDeReuniones_TPI/src/lib/googletest-master/googletest/include/gtest/gtest.h
FN:256,_ZN7testing15AssertionResultD2Ev
FN:288,_ZNK7testing15AssertionResultcvbEv
FN:297,_ZNK7testing15AssertionResult7messageEv
FN:302,_ZNK7testing15AssertionResult15failure_messageEv
FN:389,_ZN7testing4Test13SetUpTestCaseEv
FN:397,_ZN7testing4Test16TearDownTestCaseEv
FN:474,_ZN7testing4Test5SetupEv
FNDA:0,_ZN7testing15AssertionResultD2Ev
FNDA:0,_ZNK7testing15AssertionResultcvbEv
FNDA:0,_ZNK7testing15AssertionResult7messageEv
FNDA:0,_ZNK7testing15AssertionResult15failure_messageEv
FNDA:0,_ZN7testing4Test13SetUpTestCaseEv
FNDA:0,_ZN7testing4Test16TearDownTestCaseEv
FNDA:0,_ZN7testing4Test5SetupEv
FNF:7
FNH:0
DA:256,0
DA:288,0
DA:297,0
DA:298,0
DA:302,0
DA:389,0
DA:397,0
DA:474,0
LF:8
LH:0
end_of_record
SF:/home/ruslan/Facultad/Algo1 2017/TPI2017/TPIalgo1/salaDeReuniones_TPI/src/lib/googletest-master/googletest/include/gtest/internal/gtest-internal.h
FN:466,_ZN7testing8internal15TestFactoryBaseD2Ev
FN:466,_ZN7testing8internal15TestFactoryBaseD0Ev
FN:473,_ZN7testing8internal15TestFactoryBaseC2Ev
FN:482,_ZN7testing8internal15TestFactoryImplI36resultadoFinalTEST_all_speakers_TestEC2Ev
FN:482,_ZN7testing8internal15TestFactoryImplI35compararSilenciosTEST_speaker0_TestEC2Ev
FN:482,_ZN7testing8internal15TestFactoryImplI35compararSilenciosTEST_speaker0_TestED2Ev
FN:482,_ZN7testing8internal15TestFactoryImplI35compararSilenciosTEST_speaker0_TestED0Ev
FN:482,_ZN7testing8internal15TestFactoryImplI36resultadoFinalTEST_all_speakers_TestED2Ev
FN:482,_ZN7testing8internal15TestFactoryImplI36resultadoFinalTEST_all_speakers_TestED0Ev
FN:484,_ZN7testing8internal15TestFactoryImplI35compararSilenciosTEST_speaker0_TestE10CreateTestEv
FN:484,_ZN7testing8internal15TestFactoryImplI36resultadoFinalTEST_all_speakers_TestE10CreateTestEv
FN:504,_ZN7testing8internal12CodeLocationD2Ev
FN:505,_ZN7testing8internal12CodeLocationC2ERKSsi
FNDA:0,_ZN7testing8internal15TestFactoryBaseD0Ev
FNDA:0,_ZN7testing8internal15TestFactoryBaseD2Ev
FNDA:0,_ZN7testing8internal15TestFactoryBaseC2Ev
FNDA:8,_ZN7testing8internal15TestFactoryImplI35compararSilenciosTEST_speaker0_TestED0Ev
FNDA:8,_ZN7testing8internal15TestFactoryImplI35compararSilenciosTEST_speaker0_TestED2Ev
FNDA:8,_ZN7testing8internal15TestFactoryImplI36resultadoFinalTEST_all_speakers_TestED0Ev
FNDA:8,_ZN7testing8internal15TestFactoryImplI36resultadoFinalTEST_all_speakers_TestED2Ev
FNDA:8,_ZN7testing8internal15TestFactoryImplI36resultadoFinalTEST_all_speakers_TestEC2Ev
FNDA:8,_ZN7testing8internal15TestFactoryImplI35compararSilenciosTEST_speaker0_TestEC2Ev
FNDA:8,_ZN7testing8internal15TestFactoryImplI35compararSilenciosTEST_speaker0_TestE10CreateTestEv
FNDA:8,_ZN7testing8internal15TestFactoryImplI36resultadoFinalTEST_all_speakers_TestE10CreateTestEv
FNDA:0,_ZN7testing8internal12CodeLocationD2Ev
FNDA:0,_ZN7testing8internal12CodeLocationC2ERKSsi
FNF:13
FNH:8
DA:466,0
DA:473,0
DA:482,48
DA:484,16
DA:504,0
DA:505,0
DA:506,0
LF:7
LH:2
end_of_record
SF:/home/ruslan/Facultad/Algo1 2017/TPI2017/TPIalgo1/salaDeReuniones_TPI/src/lib/googletest-master/googletest/include/gtest/internal/gtest-port.h
FN:1157,_ZN7testing8internal10scoped_ptrISt18basic_stringstreamIcSt11char_traitsIcESaIcEEED2Ev
FN:1157,_ZN7testing8internal10scoped_ptrISsED2Ev
FN:1160,_ZNK7testing8internal10scoped_ptrISsEptEv
FN:1161,_ZNK7testing8internal10scoped_ptrISsE3getEv
FN:1169,_ZN7testing8internal10scoped_ptrISt18basic_stringstreamIcSt11char_traitsIcESaIcEEE5resetEPS6_
FN:1169,_ZN7testing8internal10scoped_ptrISsE5resetEPSs
FNDA:0,_ZN7testing8internal10scoped_ptrISsED2Ev
FNDA:0,_ZN7testing8internal10scoped_ptrISt18basic_stringstreamIcSt11char_traitsIcESaIcEEED2Ev
FNDA:0,_ZNK7testing8internal10scoped_ptrISsEptEv
FNDA:0,_ZNK7testing8internal10scoped_ptrISsE3getEv
FNDA:0,_ZN7testing8internal10scoped_ptrISt18basic_stringstreamIcSt11char_traitsIcESaIcEEE5resetEPS6_
FNDA:0,_ZN7testing8internal10scoped_ptrISsE5resetEPSs
FNF:6
FNH:0
DA:1157,0
DA:1160,0
DA:1161,0
DA:1169,0
DA:1170,0
DA:1171,0
DA:1172,0
DA:1174,0
DA:1176,0
LF:9
LH:0
end_of_record
SF:/home/ruslan/Facultad/Algo1 2017/TPI2017/TPIalgo1/salaDeReuniones_TPI/src/tests/compararSilenciosTEST.cpp
FN:8,_ZN35compararSilenciosTEST_speaker0_TestC2Ev
FN:8,_ZN35compararSilenciosTEST_speaker0_TestD2Ev
FN:8,_Z41__static_initialization_and_destruction_0ii
FN:8,_ZN35compararSilenciosTEST_speaker0_TestD0Ev
FN:8,_ZN35compararSilenciosTEST_speaker0_Test8TestBodyEv
FN:18,_ZN36resultadoFinalTEST_all_speakers_TestD2Ev
FN:18,_ZN36resultadoFinalTEST_all_speakers_Test8TestBodyEv
FN:18,_ZN36resultadoFinalTEST_all_speakers_TestC2Ev
FN:18,_ZN36resultadoFinalTEST_all_speakers_TestD0Ev
FN:32,_GLOBAL__sub_I__ZN35compararSilenciosTEST_speaker0_Test10test_info_E
FNDA:8,_ZN35compararSilenciosTEST_speaker0_TestD0Ev
FNDA:8,_ZN35compararSilenciosTEST_speaker0_TestD2Ev
FNDA:8,_ZN35compararSilenciosTEST_speaker0_Test8TestBodyEv
FNDA:8,_ZN35compararSilenciosTEST_speaker0_TestC2Ev
FNDA:8,_ZN36resultadoFinalTEST_all_speakers_TestD0Ev
FNDA:8,_ZN36resultadoFinalTEST_all_speakers_TestD2Ev
FNDA:8,_ZN36resultadoFinalTEST_all_speakers_Test8TestBodyEv
FNDA:8,_ZN36resultadoFinalTEST_all_speakers_TestC2Ev
FNDA:8,_GLOBAL__sub_I__ZN35compararSilenciosTEST_speaker0_Test10test_info_E
FNDA:8,_Z41__static_initialization_and_destruction_0ii
FNF:10
FNH:10
DA:8,40
DA:10,8
DA:12,8
DA:14,8
DA:16,8
DA:18,40
DA:25,8
DA:27,16
DA:28,8
DA:30,16
DA:32,32
LF:11
LH:11
end_of_record
SF:/usr/include/c++/4.8/bits/alloc_traits.h
FN:337,_ZNSt16allocator_traitsISaISt6vectorIiSaIiEEEE9_S_selectIKS3_EENSt9enable_ifIXntsrNS4_15__select_helperIT_EE5valueES9_E4typeERS9_
FN:337,_ZNSt16allocator_traitsISaIiEE9_S_selectIKS0_EENSt9enable_ifIXntsrNS1_15__select_helperIT_EE5valueES6_E4typeERS6_
FN:337,_ZNSt16allocator_traitsISaISsEE9_S_selectIKS0_EENSt9enable_ifIXntsrNS1_15__select_helperIT_EE5valueES6_E4typeERS6_
FN:427,_ZNSt16allocator_traitsISaISt6vectorIiSaIiEEEE37select_on_container_copy_constructionERKS3_
FN:427,_ZNSt16allocator_traitsISaISsEE37select_on_container_copy_constructionERKS0_
FN:427,_ZNSt16allocator_traitsISaIiEE37select_on_container_copy_constructionERKS0_
FNDA:0,_ZNSt16allocator_traitsISaISt6vectorIiSaIiEEEE9_S_selectIKS3_EENSt9enable_ifIXntsrNS4_15__select_helperIT_EE5valueES9_E4typeERS9_
FNDA:24,_ZNSt16allocator_traitsISaISsEE9_S_selectIKS0_EENSt9enable_ifIXntsrNS1_15__select_helperIT_EE5valueES6_E4typeERS6_
FNDA:0,_ZNSt16allocator_traitsISaIiEE9_S_selectIKS0_EENSt9enable_ifIXntsrNS1_15__select_helperIT_EE5valueES6_E4typeERS6_
FNDA:0,_ZNSt16allocator_traitsISaISt6vectorIiSaIiEEEE37select_on_container_copy_constructionERKS3_
FNDA:24,_ZNSt16allocator_traitsISaISsEE37select_on_container_copy_constructionERKS0_
FNDA:0,_ZNSt16allocator_traitsISaIiEE37select_on_container_copy_constructionERKS0_
FNF:6
FNH:2
DA:337,24
DA:338,24
DA:427,24
DA:428,24
LF:4
LH:4
end_of_record
SF:/usr/include/c++/4.8/bits/allocator.h
FN:113,_ZNSaISsEC2Ev
FN:115,_ZNSaIiEC2ERKS_
FN:115,_ZNSaISt6vectorIiSaIiEEEC2ERKS2_
FN:115,_ZNSaISsEC2ERKS_
FN:121,_ZNSaISsED2Ev
FN:121,_ZNSaISt6vectorIiSaIiEEED2Ev
FN:121,_ZNSaIiED2Ev
FNDA:32,_ZNSaISsEC2Ev
FNDA:0,_ZNSaISt6vectorIiSaIiEEEC2ERKS2_
FNDA:72,_ZNSaISsEC2ERKS_
FNDA:0,_ZNSaIiEC2ERKS_
FNDA:0,_ZNSaISt6vectorIiSaIiEEED2Ev
FNDA:0,_ZNSaIiED2Ev
FNDA:104,_ZNSaISsED2Ev
FNF:7
FNH:3
DA:113,32
DA:115,72
DA:116,72
DA:121,104
LF:4
LH:4
end_of_record
SF:/usr/include/c++/4.8/bits/basic_string.h
FN:272,_ZNSs12_Alloc_hiderD2Ev
FNDA:0,_ZNSs12_Alloc_hiderD2Ev
FNF:1
FNH:0
DA:272,0
LF:1
LH:0
end_of_record
SF:/usr/include/c++/4.8/bits/move.h
FN:47,_ZSt11__addressofISsEPT_RS0_
FN:47,_ZSt11__addressofISt6vectorIiSaIiEEEPT_RS3_
FN:76,_ZSt7forwardIRKSsEOT_RNSt16remove_referenceIS2_E4typeE
FN:76,_ZSt7forwardIRKSt6vectorIiSaIiEEEOT_RNSt16remove_referenceIS5_E4typeE
FNDA:0,_ZSt11__addressofISt6vectorIiSaIiEEEPT_RS3_
FNDA:424,_ZSt11__addressofISsEPT_RS0_
FNDA:0,_ZSt7forwardIRKSt6vectorIiSaIiEEEOT_RNSt16remove_referenceIS5_E4typeE
FNDA:208,_ZSt7forwardIRKSsEOT_RNSt16remove_referenceIS2_E4typeE
FNF:4
FNH:2
DA:47,424
DA:50,424
DA:76,208
DA:77,208
LF:4
LH:4
end_of_record
SF:/usr/include/c++/4.8/bits/stl_algobase.h
FN:277,_ZSt12__niter_baseIN9__gnu_cxx17__normal_iteratorIPKiSt6vectorIiSaIiEEEEENSt11_Niter_baseIT_E13iterator_typeES9_
FN:277,_ZSt12__niter_baseIPiENSt11_Niter_baseIT_E13iterator_typeES2_
FN:288,_ZSt12__miter_baseIN9__gnu_cxx17__normal_iteratorIPKiSt6vectorIiSaIiEEEEENSt11_Miter_baseIT_E13iterator_typeES9_
FN:368,_ZNSt11__copy_moveILb0ELb1ESt26random_access_iterator_tagE8__copy_mIiEEPT_PKS3_S6_S4_
FN:379,_ZSt13__copy_move_aILb0EPKiPiET1_T0_S4_S3_
FN:424,_ZSt14__copy_move_a2ILb0EN9__gnu_cxx17__normal_iteratorIPKiSt6vectorIiSaIiEEEEPiET1_T0_SA_S9_
FN:450,_ZSt4copyIN9__gnu_cxx17__normal_iteratorIPKiSt6vectorIiSaIiEEEEPiET0_T_SA_S9_
FNDA:0,_ZSt12__niter_baseIPiENSt11_Niter_baseIT_E13iterator_typeES2_
FNDA:0,_ZSt12__niter_baseIN9__gnu_cxx17__normal_iteratorIPKiSt6vectorIiSaIiEEEEENSt11_Niter_baseIT_E13iterator_typeES9_
FNDA:0,_ZSt12__miter_baseIN9__gnu_cxx17__normal_iteratorIPKiSt6vectorIiSaIiEEEEENSt11_Miter_baseIT_E13iterator_typeES9_
FNDA:0,_ZNSt11__copy_moveILb0ELb1ESt26random_access_iterator_tagE8__copy_mIiEEPT_PKS3_S6_S4_
FNDA:0,_ZSt13__copy_move_aILb0EPKiPiET1_T0_S4_S3_
FNDA:0,_ZSt14__copy_move_a2ILb0EN9__gnu_cxx17__normal_iteratorIPKiSt6vectorIiSaIiEEEEPiET1_T0_SA_S9_
FNDA:0,_ZSt4copyIN9__gnu_cxx17__normal_iteratorIPKiSt6vectorIiSaIiEEEEPiET0_T_SA_S9_
FNF:7
FNH:0
DA:277,0
DA:278,0
DA:288,0
DA:289,0
DA:368,0
DA:370,0
DA:371,0
DA:372,0
DA:373,0
DA:379,0
DA:387,0
DA:390,0
DA:424,0
DA:428,0
DA:450,0
DA:460,0
LF:16
LH:0
end_of_record
SF:/usr/include/c++/4.8/bits/stl_construct.h
FN:74,_ZSt10_ConstructISsIRKSsEEvPT_DpOT0_
FN:74,_ZSt10_ConstructISt6vectorIiSaIiEEIRKS2_EEvPT_DpOT0_
FN:92,_ZSt8_DestroyISsEvPT_
FN:92,_ZSt8_DestroyISt6vectorIiSaIiEEEvPT_
FN:100,_ZNSt12_Destroy_auxILb0EE9__destroyIPSt6vectorIiSaIiEEEEvT_S6_
FN:100,_ZNSt12_Destroy_auxILb0EE9__destroyIPSsEEvT_S3_
FN:112,_ZNSt12_Destroy_auxILb1EE9__destroyIPiEEvT_S3_
FN:122,_ZSt8_DestroyIPSsEvT_S1_
FN:122,_ZSt8_DestroyIPSt6vectorIiSaIiEEEvT_S4_
FN:122,_ZSt8_DestroyIPiEvT_S1_
FN:148,_ZSt8_DestroyIPSsSsEvT_S1_RSaIT0_E
FN:148,_ZSt8_DestroyIPSt6vectorIiSaIiEES2_EvT_S4_RSaIT0_E
FN:148,_ZSt8_DestroyIPiiEvT_S1_RSaIT0_E
FNDA:0,_ZSt10_ConstructISt6vectorIiSaIiEEIRKS2_EEvPT_DpOT0_
FNDA:208,_ZSt10_ConstructISsIRKSsEEvPT_DpOT0_
FNDA:0,_ZSt8_DestroyISt6vectorIiSaIiEEEvPT_
FNDA:216,_ZSt8_DestroyISsEvPT_
FNDA:0,_ZNSt12_Destroy_auxILb0EE9__destroyIPSt6vectorIiSaIiEEEEvT_S6_
FNDA:72,_ZNSt12_Destroy_auxILb0EE9__destroyIPSsEEvT_S3_
FNDA:0,_ZNSt12_Destroy_auxILb1EE9__destroyIPiEEvT_S3_
FNDA:0,_ZSt8_DestroyIPSt6vectorIiSaIiEEEvT_S4_
FNDA:72,_ZSt8_DestroyIPSsEvT_S1_
FNDA:0,_ZSt8_DestroyIPiEvT_S1_
FNDA:0,_ZSt8_DestroyIPSt6vectorIiSaIiEES2_EvT_S4_RSaIT0_E
FNDA:72,_ZSt8_DestroyIPSsSsEvT_S1_RSaIT0_E
FNDA:0,_ZSt8_DestroyIPiiEvT_S1_RSaIT0_E
FNF:13
FNH:5
DA:74,208
DA:75,208
DA:92,216
DA:93,216
DA:100,72
DA:102,288
DA:103,216
DA:104,72
DA:112,0
DA:122,72
DA:126,72
DA:128,72
DA:148,72
DA:151,72
DA:152,72
LF:15
LH:14
end_of_record
SF:/usr/include/c++/4.8/bits/stl_iterator.h
FN:726,_ZN9__gnu_cxx17__normal_iteratorIPKSt6vectorIiSaIiEES1_IS3_SaIS3_EEEC2ERKS5_
FN:726,_ZN9__gnu_cxx17__normal_iteratorIPKiSt6vectorIiSaIiEEEC2ERKS2_
FN:726,_ZN9__gnu_cxx17__normal_iteratorIPKSsSt6vectorISsSaISsEEEC2ERKS2_
FN:738,_ZNK9__gnu_cxx17__normal_iteratorIPKSt6vectorIiSaIiEES1_IS3_SaIS3_EEEdeEv
FN:738,_ZNK9__gnu_cxx17__normal_iteratorIPKSsSt6vectorISsSaISsEEEdeEv
FN:746,_ZN9__gnu_cxx17__normal_iteratorIPKSsSt6vectorISsSaISsEEEppEv
FN:746,_ZN9__gnu_cxx17__normal_iteratorIPKSt6vectorIiSaIiEES1_IS3_SaIS3_EEEppEv
FN:790,_ZNK9__gnu_cxx17__normal_iteratorIPKiSt6vectorIiSaIiEEE4baseEv
FN:790,_ZNK9__gnu_cxx17__normal_iteratorIPKSt6vectorIiSaIiEES1_IS3_SaIS3_EEE4baseEv
FN:790,_ZNK9__gnu_cxx17__normal_iteratorIPKSsSt6vectorISsSaISsEEE4baseEv
FN:823,_ZN9__gnu_cxxneIPKSt6vectorIiSaIiEES1_IS3_SaIS3_EEEEbRKNS_17__normal_iteratorIT_T0_EESD_
FN:823,_ZN9__gnu_cxxneIPKSsSt6vectorISsSaISsEEEEbRKNS_17__normal_iteratorIT_T0_EESB_
FNDA:0,_ZN9__gnu_cxx17__normal_iteratorIPKSt6vectorIiSaIiEES1_IS3_SaIS3_EEEC2ERKS5_
FNDA:48,_ZN9__gnu_cxx17__normal_iteratorIPKSsSt6vectorISsSaISsEEEC2ERKS2_
FNDA:0,_ZN9__gnu_cxx17__normal_iteratorIPKiSt6vectorIiSaIiEEEC2ERKS2_
FNDA:0,_ZNK9__gnu_cxx17__normal_iteratorIPKSt6vectorIiSaIiEES1_IS3_SaIS3_EEEdeEv
FNDA:104,_ZNK9__gnu_cxx17__normal_iteratorIPKSsSt6vectorISsSaISsEEEdeEv
FNDA:0,_ZN9__gnu_cxx17__normal_iteratorIPKSt6vectorIiSaIiEES1_IS3_SaIS3_EEEppEv
FNDA:104,_ZN9__gnu_cxx17__normal_iteratorIPKSsSt6vectorISsSaISsEEEppEv
FNDA:0,_ZNK9__gnu_cxx17__normal_iteratorIPKiSt6vectorIiSaIiEEE4baseEv
FNDA:0,_ZNK9__gnu_cxx17__normal_iteratorIPKSt6vectorIiSaIiEES1_IS3_SaIS3_EEE4baseEv
FNDA:256,_ZNK9__gnu_cxx17__normal_iteratorIPKSsSt6vectorISsSaISsEEE4baseEv
FNDA:0,_ZN9__gnu_cxxneIPKSt6vectorIiSaIiEES1_IS3_SaIS3_EEEEbRKNS_17__normal_iteratorIT_T0_EESD_
FNDA:128,_ZN9__gnu_cxxneIPKSsSt6vectorISsSaISsEEEEbRKNS_17__normal_iteratorIT_T0_EESB_
FNF:12
FNH:5
DA:726,48
DA:738,104
DA:739,104
DA:746,104
DA:748,104
DA:749,104
DA:790,256
DA:791,256
DA:823,128
DA:825,128
LF:10
LH:10
end_of_record
SF:/usr/include/c++/4.8/bits/stl_iterator_base_funcs.h
FN:90,_ZSt10__distanceIPKSsENSt15iterator_traitsIT_E15difference_typeES3_S3_St26random_access_iterator_tag
FN:114,_ZSt8distanceIPKSsENSt15iterator_traitsIT_E15difference_typeES3_S3_
FNDA:24,_ZSt10__distanceIPKSsENSt15iterator_traitsIT_E15difference_typeES3_S3_St26random_access_iterator_tag
FNDA:24,_ZSt8distanceIPKSsENSt15iterator_traitsIT_E15difference_typeES3_S3_
FNF:2
FNH:2
DA:90,24
DA:96,24
DA:114,24
DA:118,24
LF:4
LH:4
end_of_record
SF:/usr/include/c++/4.8/bits/stl_iterator_base_types.h
FN:201,_ZSt19__iterator_categoryIPKSsENSt15iterator_traitsIT_E17iterator_categoryERKS3_
FN:212,_ZNSt10_Iter_baseIN9__gnu_cxx17__normal_iteratorIPKiSt6vectorIiSaIiEEEELb0EE7_S_baseES7_
FN:212,_ZNSt10_Iter_baseIPiLb0EE7_S_baseES0_
FN:220,_ZNSt10_Iter_baseIN9__gnu_cxx17__normal_iteratorIPKiSt6vectorIiSaIiEEEELb1EE7_S_baseES7_
FNDA:24,_ZSt19__iterator_categoryIPKSsENSt15iterator_traitsIT_E17iterator_categoryERKS3_
FNDA:0,_ZNSt10_Iter_baseIPiLb0EE7_S_baseES0_
FNDA:0,_ZNSt10_Iter_baseIN9__gnu_cxx17__normal_iteratorIPKiSt6vectorIiSaIiEEEELb0EE7_S_baseES7_
FNDA:0,_ZNSt10_Iter_baseIN9__gnu_cxx17__normal_iteratorIPKiSt6vectorIiSaIiEEEELb1EE7_S_baseES7_
FNF:4
FNH:1
DA:201,24
DA:202,24
DA:212,0
DA:213,0
DA:220,0
DA:221,0
LF:6
LH:2
end_of_record
SF:/usr/include/c++/4.8/bits/stl_uninitialized.h
FN:68,_ZNSt20__uninitialized_copyILb0EE13__uninit_copyIN9__gnu_cxx17__normal_iteratorIPKSt6vectorIiSaIiEES4_IS6_SaIS6_EEEEPS6_EET0_T_SE_SD_
FN:68,_ZNSt20__uninitialized_copyILb0EE13__uninit_copyIPKSsPSsEET0_T_S6_S5_
FN:68,_ZNSt20__uninitialized_copyILb0EE13__uninit_copyIN9__gnu_cxx17__normal_iteratorIPKSsSt6vectorISsSaISsEEEEPSsEET0_T_SC_SB_
FN:91,_ZNSt20__uninitialized_copyILb1EE13__uninit_copyIN9__gnu_cxx17__normal_iteratorIPKiSt6vectorIiSaIiEEEEPiEET0_T_SC_SB_
FN:107,_ZSt18uninitialized_copyIPKSsPSsET0_T_S4_S3_
FN:107,_ZSt18uninitialized_copyIN9__gnu_cxx17__normal_iteratorIPKSt6vectorIiSaIiEES2_IS4_SaIS4_EEEEPS4_ET0_T_SC_SB_
FN:107,_ZSt18uninitialized_copyIN9__gnu_cxx17__normal_iteratorIPKiSt6vectorIiSaIiEEEEPiET0_T_SA_S9_
FN:107,_ZSt18uninitialized_copyIN9__gnu_cxx17__normal_iteratorIPKSsSt6vectorISsSaISsEEEEPSsET0_T_SA_S9_
FN:256,_ZSt22__uninitialized_copy_aIN9__gnu_cxx17__normal_iteratorIPKSsSt6vectorISsSaISsEEEEPSsSsET0_T_SA_S9_RSaIT1_E
FN:256,_ZSt22__uninitialized_copy_aIN9__gnu_cxx17__normal_iteratorIPKiSt6vectorIiSaIiEEEEPiiET0_T_SA_S9_RSaIT1_E
FN:256,_ZSt22__uninitialized_copy_aIN9__gnu_cxx17__normal_iteratorIPKSt6vectorIiSaIiEES2_IS4_SaIS4_EEEEPS4_S4_ET0_T_SC_SB_RSaIT1_E
FN:256,_ZSt22__uninitialized_copy_aIPKSsPSsSsET0_T_S4_S3_RSaIT1_E
FNDA:24,_ZNSt20__uninitialized_copyILb0EE13__uninit_copyIPKSsPSsEET0_T_S6_S5_
FNDA:0,_ZNSt20__uninitialized_copyILb0EE13__uninit_copyIN9__gnu_cxx17__normal_iteratorIPKSt6vectorIiSaIiEES4_IS6_SaIS6_EEEEPS6_EET0_T_SE_SD_
FNDA:24,_ZNSt20__uninitialized_copyILb0EE13__uninit_copyIN9__gnu_cxx17__normal_iteratorIPKSsSt6vectorISsSaISsEEEEPSsEET0_T_SC_SB_
FNDA:0,_ZNSt20__uninitialized_copyILb1EE13__uninit_copyIN9__gnu_cxx17__normal_iteratorIPKiSt6vectorIiSaIiEEEEPiEET0_T_SC_SB_
FNDA:24,_ZSt18uninitialized_copyIPKSsPSsET0_T_S4_S3_
FNDA:0,_ZSt18uninitialized_copyIN9__gnu_cxx17__normal_iteratorIPKSt6vectorIiSaIiEES2_IS4_SaIS4_EEEEPS4_ET0_T_SC_SB_
FNDA:24,_ZSt18uninitialized_copyIN9__gnu_cxx17__normal_iteratorIPKSsSt6vectorISsSaISsEEEEPSsET0_T_SA_S9_
FNDA:0,_ZSt18uninitialized_copyIN9__gnu_cxx17__normal_iteratorIPKiSt6vectorIiSaIiEEEEPiET0_T_SA_S9_
FNDA:24,_ZSt22__uninitialized_copy_aIPKSsPSsSsET0_T_S4_S3_RSaIT1_E
FNDA:0,_ZSt22__uninitialized_copy_aIN9__gnu_cxx17__normal_iteratorIPKSt6vectorIiSaIiEES2_IS4_SaIS4_EEEEPS4_S4_ET0_T_SC_SB_RSaIT1_E
FNDA:24,_ZSt22__uninitialized_copy_aIN9__gnu_cxx17__normal_iteratorIPKSsSt6vectorISsSaISsEEEEPSsSsET0_T_SA_S9_RSaIT1_E
FNDA:0,_ZSt22__uninitialized_copy_aIN9__gnu_cxx17__normal_iteratorIPKiSt6vectorIiSaIiEEEEPiiET0_T_SA_S9_RSaIT1_E
FNF:12
FNH:6
DA:68,48
DA:71,48
DA:74,256
DA:75,208
DA:76,48
DA:78,=====
DA:80,=====
DA:81,=====
DA:91,0
DA:93,0
DA:107,48
DA:117,48
DA:256,48
DA:258,48
LF:14
LH:9
end_of_record
SF:/usr/include/c++/4.8/bits/stl_vector.h
FN:79,_ZNSt12_Vector_baseISt6vectorIiSaIiEESaIS2_EE12_Vector_implD2Ev
FN:79,_ZNSt12_Vector_baseIiSaIiEE12_Vector_implD2Ev
FN:79,_ZNSt12_Vector_baseISsSaISsEE12_Vector_implD2Ev
FN:90,_ZNSt12_Vector_baseISsSaISsEE12_Vector_implC2ERKS0_
FN:90,_ZNSt12_Vector_baseIiSaIiEE12_Vector_implC2ERKS0_
FN:90,_ZNSt12_Vector_baseISt6vectorIiSaIiEESaIS2_EE12_Vector_implC2ERKS3_
FN:113,_ZNSt12_Vector_baseIiSaIiEE19_M_get_Tp_allocatorEv
FN:113,_ZNSt12_Vector_baseISsSaISsEE19_M_get_Tp_allocatorEv
FN:113,_ZNSt12_Vector_baseISt6vectorIiSaIiEESaIS2_EE19_M_get_Tp_allocatorEv
FN:117,_ZNKSt12_Vector_baseISsSaISsEE19_M_get_Tp_allocatorEv
FN:117,_ZNKSt12_Vector_baseIiSaIiEE19_M_get_Tp_allocatorEv
FN:117,_ZNKSt12_Vector_baseISt6vectorIiSaIiEESaIS2_EE19_M_get_Tp_allocatorEv
FN:127,_ZNSt12_Vector_baseISsSaISsEEC2ERKS0_
FN:134,_ZNSt12_Vector_baseIiSaIiEEC2EmRKS0_
FN:134,_ZNSt12_Vector_baseISsSaISsEEC2EmRKS0_
FN:134,_ZNSt12_Vector_baseISt6vectorIiSaIiEESaIS2_EEC2EmRKS3_
FN:159,_ZNSt12_Vector_baseISsSaISsEED2Ev
FN:159,_ZNSt12_Vector_baseIiSaIiEED2Ev
FN:159,_ZNSt12_Vector_baseISt6vectorIiSaIiEESaIS2_EED2Ev
FN:167,_ZNSt12_Vector_baseISt6vectorIiSaIiEESaIS2_EE11_M_allocateEm
FN:167,_ZNSt12_Vector_baseISsSaISsEE11_M_allocateEm
FN:167,_ZNSt12_Vector_baseIiSaIiEE11_M_allocateEm
FN:171,_ZNSt12_Vector_baseISsSaISsEE13_M_deallocateEPSsm
FN:171,_ZNSt12_Vector_baseIiSaIiEE13_M_deallocateEPim
FN:171,_ZNSt12_Vector_baseISt6vectorIiSaIiEESaIS2_EE13_M_deallocateEPS2_m
FN:179,_ZNSt12_Vector_baseISt6vectorIiSaIiEESaIS2_EE17_M_create_storageEm
FN:179,_ZNSt12_Vector_baseISsSaISsEE17_M_create_storageEm
FN:179,_ZNSt12_Vector_baseIiSaIiEE17_M_create_storageEm
FN:310,_ZNSt6vectorIS_IiSaIiEESaIS1_EEC2ERKS3_
FN:310,_ZNSt6vectorISsSaISsEEC2ERKS1_
FN:310,_ZNSt6vectorIiSaIiEEC2ERKS1_
FN:364,_ZNSt6vectorISsSaISsEEC2ESt16initializer_listISsERKS0_
FN:414,_ZNSt6vectorIS_IiSaIiEESaIS1_EED2Ev
FN:414,_ZNSt6vectorISsSaISsEED2Ev
FN:414,_ZNSt6vectorIiSaIiEED2Ev
FN:547,_ZNKSt6vectorIiSaIiEE5beginEv
FN:547,_ZNKSt6vectorIS_IiSaIiEESaIS1_EE5beginEv
FN:547,_ZNKSt6vectorISsSaISsEE5beginEv
FN:565,_ZNKSt6vectorISsSaISsEE3endEv
FN:565,_ZNKSt6vectorIS_IiSaIiEESaIS1_EE3endEv
FN:565,_ZNKSt6vectorIiSaIiEE3endEv
FN:645,_ZNKSt6vectorIiSaIiEE4sizeEv
FN:645,_ZNKSt6vectorIS_IiSaIiEESaIS1_EE4sizeEv
FN:645,_ZNKSt6vectorISsSaISsEE4sizeEv
FN:1197,_ZNSt6vectorISsSaISsEE19_M_range_initializeIPKSsEEvT_S5_St20forward_iterator_tag
FNDA:0,_ZNSt12_Vector_baseISt6vectorIiSaIiEESaIS2_EE12_Vector_implD2Ev
FNDA:56,_ZNSt12_Vector_baseISsSaISsEE12_Vector_implD2Ev
FNDA:0,_ZNSt12_Vector_baseIiSaIiEE12_Vector_implD2Ev
FNDA:0,_ZNSt12_Vector_baseISt6vectorIiSaIiEESaIS2_EE12_Vector_implC2ERKS3_
FNDA:48,_ZNSt12_Vector_baseISsSaISsEE12_Vector_implC2ERKS0_
FNDA:0,_ZNSt12_Vector_baseIiSaIiEE12_Vector_implC2ERKS0_
FNDA:0,_ZNSt12_Vector_baseISt6vectorIiSaIiEESaIS2_EE19_M_get_Tp_allocatorEv
FNDA:128,_ZNSt12_Vector_baseISsSaISsEE19_M_get_Tp_allocatorEv
FNDA:0,_ZNSt12_Vector_baseIiSaIiEE19_M_get_Tp_allocatorEv
FNDA:0,_ZNKSt12_Vector_baseISt6vectorIiSaIiEESaIS2_EE19_M_get_Tp_allocatorEv
FNDA:40,_ZNKSt12_Vector_baseISsSaISsEE19_M_get_Tp_allocatorEv
FNDA:0,_ZNKSt12_Vector_baseIiSaIiEE19_M_get_Tp_allocatorEv
FNDA:24,_ZNSt12_Vector_baseISsSaISsEEC2ERKS0_
FNDA:0,_ZNSt12_Vector_baseISt6vectorIiSaIiEESaIS2_EEC2EmRKS3_
FNDA:24,_ZNSt12_Vector_baseISsSaISsEEC2EmRKS0_
FNDA:0,_ZNSt12_Vector_baseIiSaIiEEC2EmRKS0_
FNDA:0,_ZNSt12_Vector_baseISt6vectorIiSaIiEESaIS2_EED2Ev
FNDA:56,_ZNSt12_Vector_baseISsSaISsEED2Ev
FNDA:0,_ZNSt12_Vector_baseIiSaIiEED2Ev
FNDA:0,_ZNSt12_Vector_baseISt6vectorIiSaIiEESaIS2_EE11_M_allocateEm
FNDA:0,_ZNSt12_Vector_baseIiSaIiEE11_M_allocateEm
FNDA:56,_ZNSt12_Vector_baseISsSaISsEE11_M_allocateEm
FNDA:0,_ZNSt12_Vector_baseISt6vectorIiSaIiEESaIS2_EE13_M_deallocateEPS2_m
FNDA:64,_ZNSt12_Vector_baseISsSaISsEE13_M_deallocateEPSsm
FNDA:0,_ZNSt12_Vector_baseIiSaIiEE13_M_deallocateEPim
FNDA:0,_ZNSt12_Vector_baseISt6vectorIiSaIiEESaIS2_EE17_M_create_storageEm
FNDA:24,_ZNSt12_Vector_baseISsSaISsEE17_M_create_storageEm
FNDA:0,_ZNSt12_Vector_baseIiSaIiEE17_M_create_storageEm
FNDA:0,_ZNSt6vectorIS_IiSaIiEESaIS1_EEC2ERKS3_
FNDA:24,_ZNSt6vectorISsSaISsEEC2ERKS1_
FNDA:0,_ZNSt6vectorIiSaIiEEC2ERKS1_
FNDA:24,_ZNSt6vectorISsSaISsEEC2ESt16initializer_listISsERKS0_
FNDA:0,_ZNSt6vectorIS_IiSaIiEESaIS1_EED2Ev
FNDA:56,_ZNSt6vectorISsSaISsEED2Ev
FNDA:0,_ZNSt6vectorIiSaIiEED2Ev
FNDA:0,_ZNKSt6vectorIS_IiSaIiEESaIS1_EE5beginEv
FNDA:24,_ZNKSt6vectorISsSaISsEE5beginEv
FNDA:0,_ZNKSt6vectorIiSaIiEE5beginEv
FNDA:0,_ZNKSt6vectorIS_IiSaIiEESaIS1_EE3endEv
FNDA:24,_ZNKSt6vectorISsSaISsEE3endEv
FNDA:0,_ZNKSt6vectorIiSaIiEE3endEv
FNDA:0,_ZNKSt6vectorIS_IiSaIiEESaIS1_EE4sizeEv
FNDA:0,_ZNKSt6vectorISsSaISsEE4sizeEv
FNDA:0,_ZNKSt6vectorIiSaIiEE4sizeEv
FNDA:24,_ZNSt6vectorISsSaISsEE19_M_range_initializeIPKSsEEvT_S5_St20forward_iterator_tag
FNF:45
FNH:16
DA:79,56
DA:90,48
DA:91,48
DA:92,48
DA:113,128
DA:114,128
DA:117,40
DA:118,40
DA:127,24
DA:128,24
DA:134,24
DA:135,24
DA:136,24
DA:159,56
DA:160,56
DA:161,112
DA:167,56
DA:168,56
DA:171,64
DA:173,64
DA:174,56
DA:175,64
DA:179,24
DA:181,24
DA:182,24
DA:183,24
DA:184,24
DA:310,24
DA:312,24
DA:313,24
DA:316,24
DA:317,24
DA:364,24
DA:366,24
DA:368,24
DA:369,48
DA:370,24
DA:414,56
DA:415,56
DA:416,112
DA:547,24
DA:548,24
DA:565,24
DA:566,24
DA:645,0
DA:646,0
DA:1197,24
DA:1200,24
DA:1201,24
DA:1202,24
DA:1203,24
DA:1206,24
DA:1207,24
LF:53
LH:51
end_of_record
SF:/usr/include/c++/4.8/ext/alloc_traits.h
FN:166,_ZN9__gnu_cxx14__alloc_traitsISaISt6vectorIiSaIiEEEE17_S_select_on_copyERKS4_
FN:166,_ZN9__gnu_cxx14__alloc_traitsISaISsEE17_S_select_on_copyERKS1_
FN:166,_ZN9__gnu_cxx14__alloc_traitsISaIiEE17_S_select_on_copyERKS1_
FNDA:0,_ZN9__gnu_cxx14__alloc_traitsISaISt6vectorIiSaIiEEEE17_S_select_on_copyERKS4_
FNDA:24,_ZN9__gnu_cxx14__alloc_traitsISaISsEE17_S_select_on_copyERKS1_
FNDA:0,_ZN9__gnu_cxx14__alloc_traitsISaIiEE17_S_select_on_copyERKS1_
FNF:3
FNH:1
DA:166,24
DA:167,24
LF:2
LH:2
end_of_record
SF:/usr/include/c++/4.8/ext/atomicity.h
FN:48,_ZN9__gnu_cxxL18__exchange_and_addEPVii
FN:65,_ZN9__gnu_cxxL25__exchange_and_add_singleEPii
FN:78,_ZN9__gnu_cxxL27__exchange_and_add_dispatchEPii
FNDA:0,_ZN9__gnu_cxxL18__exchange_and_addEPVii
FNDA:0,_ZN9__gnu_cxxL25__exchange_and_add_singleEPii
FNDA:0,_ZN9__gnu_cxxL27__exchange_and_add_dispatchEPii
FNF:3
FNH:0
DA:48,0
DA:49,0
DA:65,0
DA:67,0
DA:68,0
DA:69,0
DA:78,0
DA:81,0
DA:82,0
DA:84,0
LF:10
LH:0
end_of_record
SF:/usr/include/c++/4.8/ext/new_allocator.h
FN:79,_ZN9__gnu_cxx13new_allocatorISsEC2Ev
FN:79,_ZN9__gnu_cxx13new_allocatorIcEC2Ev
FN:81,_ZN9__gnu_cxx13new_allocatorISt6vectorIiSaIiEEEC2ERKS4_
FN:81,_ZN9__gnu_cxx13new_allocatorIiEC2ERKS1_
FN:81,_ZN9__gnu_cxx13new_allocatorISsEC2ERKS1_
FN:81,_ZN9__gnu_cxx13new_allocatorIcEC2ERKS1_
FN:86,_ZN9__gnu_cxx13new_allocatorISsED2Ev
FN:86,_ZN9__gnu_cxx13new_allocatorIiED2Ev
FN:86,_ZN9__gnu_cxx13new_allocatorIcED2Ev
FN:86,_ZN9__gnu_cxx13new_allocatorISt6vectorIiSaIiEEED2Ev
FN:99,_ZN9__gnu_cxx13new_allocatorIiE8allocateEmPKv
FN:99,_ZN9__gnu_cxx13new_allocatorISsE8allocateEmPKv
FN:99,_ZN9__gnu_cxx13new_allocatorISt6vectorIiSaIiEEE8allocateEmPKv
FN:109,_ZN9__gnu_cxx13new_allocatorIiE10deallocateEPim
FN:109,_ZN9__gnu_cxx13new_allocatorISt6vectorIiSaIiEEE10deallocateEPS3_m
FN:109,_ZN9__gnu_cxx13new_allocatorISsE10deallocateEPSsm
FN:113,_ZNK9__gnu_cxx13new_allocatorIiE8max_sizeEv
FN:113,_ZNK9__gnu_cxx13new_allocatorISsE8max_sizeEv
FN:113,_ZNK9__gnu_cxx13new_allocatorISt6vectorIiSaIiEEE8max_sizeEv
FNDA:32,_ZN9__gnu_cxx13new_allocatorISsEC2Ev
FNDA:0,_ZN9__gnu_cxx13new_allocatorIcEC2Ev
FNDA:0,_ZN9__gnu_cxx13new_allocatorISt6vectorIiSaIiEEEC2ERKS4_
FNDA:72,_ZN9__gnu_cxx13new_allocatorISsEC2ERKS1_
FNDA:0,_ZN9__gnu_cxx13new_allocatorIiEC2ERKS1_
FNDA:0,_ZN9__gnu_cxx13new_allocatorIcEC2ERKS1_
FNDA:0,_ZN9__gnu_cxx13new_allocatorISt6vectorIiSaIiEEED2Ev
FNDA:0,_ZN9__gnu_cxx13new_allocatorIiED2Ev
FNDA:104,_ZN9__gnu_cxx13new_allocatorISsED2Ev
FNDA:0,_ZN9__gnu_cxx13new_allocatorIcED2Ev
FNDA:0,_ZN9__gnu_cxx13new_allocatorISt6vectorIiSaIiEEE8allocateEmPKv
FNDA:0,_ZN9__gnu_cxx13new_allocatorIiE8allocateEmPKv
FNDA:56,_ZN9__gnu_cxx13new_allocatorISsE8allocateEmPKv
FNDA:0,_ZN9__gnu_cxx13new_allocatorISt6vectorIiSaIiEEE10deallocateEPS3_m
FNDA:56,_ZN9__gnu_cxx13new_allocatorISsE10deallocateEPSsm
FNDA:0,_ZN9__gnu_cxx13new_allocatorIiE10deallocateEPim
FNDA:0,_ZNK9__gnu_cxx13new_allocatorISt6vectorIiSaIiEEE8max_sizeEv
FNDA:0,_ZNK9__gnu_cxx13new_allocatorIiE8max_sizeEv
FNDA:72,_ZNK9__gnu_cxx13new_allocatorISsE8max_sizeEv
FNF:19
FNH:6
DA:79,32
DA:81,72
DA:86,104
DA:99,56
DA:101,56
DA:102,0
DA:104,56
DA:109,56
DA:110,56
DA:113,72
DA:114,72
LF:11
LH:10
end_of_record
SF:/usr/include/c++/4.8/initializer_list
FN:71,_ZNKSt16initializer_listISsE4sizeEv
FN:75,_ZNKSt16initializer_listISsE5beginEv
FN:79,_ZNKSt16initializer_listISsE3endEv
FNDA:24,_ZNKSt16initializer_listISsE4sizeEv
FNDA:48,_ZNKSt16initializer_listISsE5beginEv
FNDA:24,_ZNKSt16initializer_listISsE3endEv
FNF:3
FNH:3
DA:71,24
DA:75,48
DA:79,24
LF:3
LH:3
end_of_record
SF:/usr/include/c++/4.8/iostream
DA:74,8
LF:1
LH:1
end_of_record
SF:/usr/include/c++/4.8/new
FN:109,_ZnwmPv
FN:115,_ZdlPvS_
FNDA:0,_ZnwmPv
FNDA:0,_ZdlPvS_
FNF:2
FNH:0
DA:109,0
DA:110,0
DA:115,0
LF:3
LH:0
end_of_record
SF:/usr/include/x86_64-linux-gnu/c++/4.8/bits/gthr-default.h
FN:247,_ZL18__gthread_active_pv
FNDA:0,_ZL18__gthread_active_pv
FNF:1
FNH:0
DA:247,0
DA:251,0
LF:2
LH:0
end_of_record
TN:
SF:/home/ruslan/Facultad/Algo1 2017/TPI2017/TPIalgo1/salaDeReuniones_TPI/src/lib/googletest-master/googletest/include/gtest/gtest-message.h
FN:85,_ZN7testing7MessageD2Ev
FNDA:0,_ZN7testing7MessageD2Ev
FNF:1
FNH:0
DA:85,0
LF:1
LH:0
end_of_record
SF:/home/ruslan/Facultad/Algo1 2017/TPI2017/TPIalgo1/salaDeReuniones_TPI/src/lib/googletest-master/googletest/include/gtest/gtest-printers.h
FN:275,_ZN7testing8internal19FormatForComparisonIbbE6FormatERKb
FN:349,_ZN7testing8internal33FormatForComparisonFailureMessageIbbEESsRKT_RKT0_
FN:511,_ZN7testing8internal7PrintToEbPSo
FN:714,_ZN7testing8internal16UniversalPrinterIbE5PrintERKbPSo
FN:799,_ZN7testing8internal21UniversalTersePrinterIbE5PrintERKbPSo
FN:868,_ZN7testing8internal14UniversalPrintIbEEvRKT_PSo
FN:996,_ZN7testing13PrintToStringIbEESsRKT_
FNDA:0,_ZN7testing8internal19FormatForComparisonIbbE6FormatERKb
FNDA:0,_ZN7testing8internal33FormatForComparisonFailureMessageIbbEESsRKT_RKT0_
FNDA:0,_ZN7testing8internal7PrintToEbPSo
FNDA:0,_ZN7testing8internal16UniversalPrinterIbE5PrintERKbPSo
FNDA:0,_ZN7testing8internal21UniversalTersePrinterIbE5PrintERKbPSo
FNDA:0,_ZN7testing8internal14UniversalPrintIbEEvRKT_PSo
FNDA:0,_ZN7testing13PrintToStringIbEESsRKT_
FNF:7
FNH:0
DA:275,0
DA:276,0
DA:349,0
DA:351,0
DA:511,0
DA:512,0
DA:513,0
DA:714,0
DA:723,0
DA:724,0
DA:799,0
DA:800,0
DA:801,0
DA:868,0
DA:872,0
DA:873,0
DA:996,0
DA:997,0
DA:998,0
DA:999,0
LF:20
LH:0
end_of_record
SF:/home/ruslan/Facultad/Algo1 2017/TPI2017/TPIalgo1/salaDeReuniones_TPI/src/lib/googletest-master/googletest/include/gtest/gtest.h
FN:256,_ZN7testing15AssertionResultD2Ev
FN:288,_ZNK7testing15AssertionResultcvbEv
FN:297,_ZNK7testing15AssertionResult7messageEv
FN:302,_ZNK7testing15AssertionResult15failure_messageEv
FN:389,_ZN7testing4Test13SetUpTestCaseEv
FN:397,_ZN7testing4Test16TearDownTestCaseEv
FN:474,_ZN7testing4Test5SetupEv
FN:1375,_ZN7testing8internal18CmpHelperEQFailureIbbEENS_15AssertionResultEPKcS4_RKT_RKT0_
FN:1387,_ZN7testing8internal11CmpHelperEQIbbEENS_15AssertionResultEPKcS4_RKT_RKT0_
FN:1417,_ZN7testing8internal8EqHelperILb0EE7CompareIbbEENS_15AssertionResultEPKcS6_RKT_RKT0_
FNDA:0,_ZN7testing15AssertionResultD2Ev
FNDA:0,_ZNK7testing15AssertionResultcvbEv
FNDA:0,_ZNK7testing15AssertionResult7messageEv
FNDA:0,_ZNK7testing15AssertionResult15failure_messageEv
FNDA:0,_ZN7testing4Test13SetUpTestCaseEv
FNDA:0,_ZN7testing4Test16TearDownTestCaseEv
FNDA:0,_ZN7testing4Test5SetupEv
FNDA:0,_ZN7testing8internal18CmpHelperEQFailureIbbEENS_15AssertionResultEPKcS4_RKT_RKT0_
FNDA:0,_ZN7testing8internal11CmpHelperEQIbbEENS_15AssertionResultEPKcS4_RKT_RKT0_
FNDA:0,_ZN7testing8internal8EqHelperILb0EE7CompareIbbEENS_15AssertionResultEPKcS6_RKT_RKT0_
FNF:10
FNH:0
DA:256,0
DA:288,0
DA:297,0
DA:298,0
DA:302,0
DA:389,0
DA:397,0
DA:474,0
DA:1375,0
DA:1382,0
DA:1387,0
DA:1392,0
DA:1393,0
DA:1397,0
DA:1417,0
DA:1421,0
LF:16
LH:0
end_of_record
SF:/home/ruslan/Facultad/Algo1 2017/TPI2017/TPIalgo1/salaDeReuniones_TPI/src/lib/googletest-master/googletest/include/gtest/internal/gtest-internal.h
FN:466,_ZN7testing8internal15TestFactoryBaseD2Ev
FN:466,_ZN7testing8internal15TestFactoryBaseD0Ev
FN:473,_ZN7testing8internal15TestFactoryBaseC2Ev
FN:482,_ZN7testing8internal15TestFactoryImplI28hayQuilomboTest_unAudio_TestEC2Ev
FN:482,_ZN7testing8internal15TestFactoryImplI28hayQuilomboTest_unAudio_TestED2Ev
FN:482,_ZN7testing8internal15TestFactoryImplI28hayQuilomboTest_unAudio_TestED0Ev
FN:484,_ZN7testing8internal15TestFactoryImplI28hayQuilomboTest_unAudio_TestE10CreateTestEv
FN:504,_ZN7testing8internal12CodeLocationD2Ev
FN:505,_ZN7testing8internal12CodeLocationC2ERKSsi
FNDA:0,_ZN7testing8internal15TestFactoryBaseD0Ev
FNDA:0,_ZN7testing8internal15TestFactoryBaseD2Ev
FNDA:0,_ZN7testing8internal15TestFactoryBaseC2Ev
FNDA:2,_ZN7testing8internal15TestFactoryImplI28hayQuilomboTest_unAudio_TestED0Ev
FNDA:2,_ZN7testing8internal15TestFactoryImplI28hayQuilomboTest_unAudio_TestED2Ev
FNDA:2,_ZN7testing8internal15TestFactoryImplI28hayQuilomboTest_unAudio_TestEC2Ev
FNDA:2,_ZN7testing8internal15TestFactoryImplI28hayQuilomboTest_unAudio_TestE10CreateTestEv
FNDA:0,_ZN7testing8internal12CodeLocationD2Ev
FNDA:0,_ZN7testing8internal12CodeLocationC2ERKSsi
FNF:9
FNH:4
DA:466,0
DA:473,0
DA:482,6
DA:484,2
DA:504,0
DA:505,0
DA:506,0
LF:7
LH:2
end_of_record
SF:/home/ruslan/Facultad/Algo1 2017/TPI2017/TPIalgo1/salaDeReuniones_TPI/src/lib/googletest-master/googletest/include/gtest/internal/gtest-port.h
FN:1157,_ZN7testing8internal10scoped_ptrISt18basic_stringstreamIcSt11char_traitsIcESaIcEEED2Ev
FN:1157,_ZN7testing8internal10scoped_ptrISsED2Ev
FN:1160,_ZNK7testing8internal10scoped_ptrISsEptEv
FN:1161,_ZNK7testing8internal10scoped_ptrISsE3getEv
FN:1169,_ZN7testing8internal10scoped_ptrISt18basic_stringstreamIcSt11char_traitsIcESaIcEEE5resetEPS6_
FN:1169,_ZN7testing8internal10scoped_ptrISsE5resetEPSs
FNDA:0,_ZN7testing8internal10scoped_ptrISsED2Ev
FNDA:0,_ZN7testing8internal10scoped_ptrISt18basic_stringstreamIcSt11char_traitsIcESaIcEEED2Ev
FNDA:0,_ZNK7testing8internal10scoped_ptrISsEptEv
FNDA:0,_ZNK7testing8internal10scoped_ptrISsE3getEv
FNDA:0,_ZN7testing8internal10scoped_ptrISt18basic_stringstreamIcSt11char_traitsIcESaIcEEE5resetEPS6_
FNDA:0,_ZN7testing8internal10scoped_ptrISsE5resetEPSs
FNF:6
FNH:0
DA:1157,0
DA:1160,0
DA:1161,0
DA:1169,0
DA:1170,0
DA:1171,0
DA:1172,0
DA:1174,0
DA:1176,0
LF:9
LH:0
end_of_record
SF:/home/ruslan/Facultad/Algo1 2017/TPI2017/TPIalgo1/salaDeReuniones_TPI/src/tests/hayQuilomboTEST.cpp
FN:7,_Z41__static_initialization_and_destruction_0ii
FN:7,_ZN28hayQuilomboTest_unAudio_TestD2Ev
FN:7,_ZN28hayQuilomboTest_unAudio_TestD0Ev
FN:7,_ZN28hayQuilomboTest_unAudio_TestC2Ev
FN:7,_ZN28hayQuilomboTest_unAudio_Test8TestBodyEv
FN:34,_GLOBAL__sub_I__ZN28hayQuilomboTest_unAudio_Test10test_info_E
FNDA:2,_ZN28hayQuilomboTest_unAudio_TestD0Ev
FNDA:2,_ZN28hayQuilomboTest_unAudio_TestD2Ev
FNDA:2,_ZN28hayQuilomboTest_unAudio_Test8TestBodyEv
FNDA:2,_ZN28hayQuilomboTest_unAudio_TestC2Ev
FNDA:2,_GLOBAL__sub_I__ZN28hayQuilomboTest_unAudio_Test10test_info_E
FNDA:2,_Z41__static_initialization_and_destruction_0ii
FNF:6
FNH:6
DA:7,10
DA:8,2
DA:9,2
DA:11,2
DA:12,4
DA:13,4
DA:14,4
DA:16,4
DA:17,2
DA:18,2
DA:20,2
DA:22,2
DA:23,2
DA:24,2
DA:26,2
DA:28,2
DA:29,2
DA:30,2
DA:31,2
DA:33,4
DA:34,8
LF:21
LH:21
end_of_record
SF:/usr/include/c++/4.8/bits/alloc_traits.h
FN:253,_ZNSt16allocator_traitsISaISt6vectorIiSaIiEEEE12_S_constructIS2_IRKS2_EEENSt9enable_ifIXsrNS4_18__construct_helperIT_IDpT0_EEE5valueEvE4typeERS3_PSA_DpOSB_
FN:280,_ZNSt16allocator_traitsISaISt6vectorIiSaIiEEEE10_S_destroyIS2_EENSt9enable_ifIXsrNS4_16__destroy_helperIT_EE5valueEvE4typeERS3_PS8_
FN:305,_ZNSt16allocator_traitsISaISt6vectorIiSaIiEEEE11_S_max_sizeIKS3_EENSt9enable_ifIXsrNS4_16__maxsize_helperIT_EE5valueEmE4typeERS9_
FN:337,_ZNSt16allocator_traitsISaISt6vectorIiSaIiEEEE9_S_selectIKS3_EENSt9enable_ifIXntsrNS4_15__select_helperIT_EE5valueES9_E4typeERS9_
FN:337,_ZNSt16allocator_traitsISaIiEE9_S_selectIKS0_EENSt9enable_ifIXntsrNS1_15__select_helperIT_EE5valueES6_E4typeERS6_
FN:391,_ZNSt16allocator_traitsISaISt6vectorIiSaIiEEEE9constructIS2_IRKS2_EEEDTcl12_S_constructfp_fp0_spcl7forwardIT0_Efp1_EEERS3_PT_DpOS8_
FN:404,_ZNSt16allocator_traitsISaISt6vectorIiSaIiEEEE7destroyIS2_EEvRS3_PT_
FN:415,_ZNSt16allocator_traitsISaISt6vectorIiSaIiEEEE8max_sizeERKS3_
FN:427,_ZNSt16allocator_traitsISaISt6vectorIiSaIiEEEE37select_on_container_copy_constructionERKS3_
FN:427,_ZNSt16allocator_traitsISaIiEE37select_on_container_copy_constructionERKS0_
FNDA:0,_ZNSt16allocator_traitsISaISt6vectorIiSaIiEEEE12_S_constructIS2_IRKS2_EEENSt9enable_ifIXsrNS4_18__construct_helperIT_IDpT0_EEE5valueEvE4typeERS3_PSA_DpOSB_
FNDA:0,_ZNSt16allocator_traitsISaISt6vectorIiSaIiEEEE10_S_destroyIS2_EENSt9enable_ifIXsrNS4_16__destroy_helperIT_EE5valueEvE4typeERS3_PS8_
FNDA:0,_ZNSt16allocator_traitsISaISt6vectorIiSaIiEEEE11_S_max_sizeIKS3_EENSt9enable_ifIXsrNS4_16__maxsize_helperIT_EE5valueEmE4typeERS9_
FNDA:0,_ZNSt16allocator_traitsISaIiEE9_S_selectIKS0_EENSt9enable_ifIXntsrNS1_15__select_helperIT_EE5valueES6_E4typeERS6_
FNDA:0,_ZNSt16allocator_traitsISaISt6vectorIiSaIiEEEE9_S_selectIKS3_EENSt9enable_ifIXntsrNS4_15__select_helperIT_EE5valueES9_E4typeERS9_
FNDA:0,_ZNSt16allocator_traitsISaISt6vectorIiSaIiEEEE9constructIS2_IRKS2_EEEDTcl12_S_constructfp_fp0_spcl7forwardIT0_Efp1_EEERS3_PT_DpOS8_
FNDA:0,_ZNSt16allocator_traitsISaISt6vectorIiSaIiEEEE7destroyIS2_EEvRS3_PT_
FNDA:0,_ZNSt16allocator_traitsISaISt6vectorIiSaIiEEEE8max_sizeERKS3_
FNDA:0,_ZNSt16allocator_traitsISaIiEE37select_on_container_copy_constructionERKS0_
FNDA:0,_ZNSt16allocator_traitsISaISt6vectorIiSaIiEEEE37select_on_container_copy_constructionERKS3_
FNF:10
FNH:0
DA:253,0
DA:254,0
DA:280,0
DA:281,0
DA:305,0
DA:306,0
DA:337,0
DA:338,0
DA:391,0
DA:393,0
DA:404,0
DA:405,0
DA:415,0
DA:416,0
DA:427,0
DA:428,0
LF:16
LH:0
end_of_record
SF:/usr/include/c++/4.8/bits/allocator.h
FN:113,_ZNSaISt6vectorIiSaIiEEEC2Ev
FN:113,_ZNSaIiEC2Ev
FN:115,_ZNSaISt6vectorIiSaIiEEEC2ERKS2_
FN:115,_ZNSaIiEC2ERKS_
FN:121,_ZNSaISt6vectorIiSaIiEEED2Ev
FN:121,_ZNSaIiED2Ev
FN:133,_ZSteqIcEbRKSaIT_ES3_
FNDA:0,_ZNSaISt6vectorIiSaIiEEEC2Ev
FNDA:0,_ZNSaIiEC2Ev
FNDA:0,_ZNSaIiEC2ERKS_
FNDA:0,_ZNSaISt6vectorIiSaIiEEEC2ERKS2_
FNDA:0,_ZNSaISt6vectorIiSaIiEEED2Ev
FNDA:0,_ZNSaIiED2Ev
FNDA:0,_ZSteqIcEbRKSaIT_ES3_
FNF:7
FNH:0
DA:113,0
DA:115,0
DA:116,0
DA:121,0
DA:133,0
DA:134,0
LF:6
LH:0
end_of_record
SF:/usr/include/c++/4.8/bits/basic_string.h
FN:272,_ZNSs12_Alloc_hiderD2Ev
FN:1721,_ZNSs16_S_construct_auxIPcEES0_T_S1_RKSaIcESt12__false_type
FN:1743,_ZNSs12_S_constructIPcEES0_T_S1_RKSaIcE
FNDA:0,_ZNSs12_Alloc_hiderD2Ev
FNDA:0,_ZNSs16_S_construct_auxIPcEES0_T_S1_RKSaIcESt12__false_type
FNDA:0,_ZNSs12_S_constructIPcEES0_T_S1_RKSaIcE
FNF:3
FNH:0
DA:272,0
DA:1721,0
DA:1725,0
DA:1743,0
DA:1746,0
LF:5
LH:0
end_of_record
SF:/usr/include/c++/4.8/bits/basic_string.tcc
FN:123,_ZNSs12_S_constructIPcEES0_T_S1_RKSaIcESt20forward_iterator_tag
FN:227,_ZNSsC2IPcEET_S1_RKSaIcE
FNDA:0,_ZNSs12_S_constructIPcEES0_T_S1_RKSaIcESt20forward_iterator_tag
FNDA:0,_ZNSsC2IPcEET_S1_RKSaIcE
FNF:2
FNH:0
DA:123,0
DA:128,0
DA:129,0
DA:132,0
DA:133,0
DA:136,0
DA:138,0
DA:140,0
DA:141,=====
DA:143,=====
DA:144,=====
DA:146,0
DA:147,0
DA:227,0
DA:229,0
DA:230,0
LF:16
LH:0
end_of_record
SF:/usr/include/c++/4.8/bits/char_traits.h
FN:242,_ZNSt11char_traitsIcE6assignERcRKc
FN:258,_ZNSt11char_traitsIcE6lengthEPKc
FN:270,_ZNSt11char_traitsIcE4copyEPcPKcm
FNDA:0,_ZNSt11char_traitsIcE6assignERcRKc
FNDA:0,_ZNSt11char_traitsIcE6lengthEPKc
FNDA:0,_ZNSt11char_traitsIcE4copyEPcPKcm
FNF:3
FNH:0
DA:242,0
DA:243,0
DA:258,0
DA:259,0
DA:270,0
DA:271,0
LF:6
LH:0
end_of_record
SF:/usr/include/c++/4.8/bits/ios_base.h
FN:123,_ZStorSt13_Ios_OpenmodeS_
FN:163,_ZStorSt12_Ios_IostateS_
FNDA:0,_ZStorSt13_Ios_OpenmodeS_
FNDA:0,_ZStorSt12_Ios_IostateS_
FNF:2
FNH:0
DA:123,0
DA:124,0
DA:163,0
DA:164,0
LF:4
LH:0
end_of_record
SF:/usr/include/c++/4.8/bits/move.h
FN:47,_ZSt11__addressofISt6vectorIiSaIiEEEPT_RS3_
FN:76,_ZSt7forwardIRKSt6vectorIiSaIiEEEOT_RNSt16remove_referenceIS5_E4typeE
FN:76,_ZSt7forwardISt6vectorIiSaIiEEEOT_RNSt16remove_referenceIS3_E4typeE
FN:101,_ZSt4moveIRSt6vectorIiSaIiEEEONSt16remove_referenceIT_E4typeEOS5_
FN:101,_ZSt4moveIRSaIiEEONSt16remove_referenceIT_E4typeEOS3_
FN:101,_ZSt4moveIRPiEONSt16remove_referenceIT_E4typeEOS3_
FN:166,_ZSt4swapIPiEvRT_S2_
FNDA:0,_ZSt11__addressofISt6vectorIiSaIiEEEPT_RS3_
FNDA:0,_ZSt7forwardISt6vectorIiSaIiEEEOT_RNSt16remove_referenceIS3_E4typeE
FNDA:0,_ZSt7forwardIRKSt6vectorIiSaIiEEEOT_RNSt16remove_referenceIS5_E4typeE
FNDA:0,_ZSt4moveIRPiEONSt16remove_referenceIT_E4typeEOS3_
FNDA:0,_ZSt4moveIRSaIiEEONSt16remove_referenceIT_E4typeEOS3_
FNDA:0,_ZSt4moveIRSt6vectorIiSaIiEEEONSt16remove_referenceIT_E4typeEOS5_
FNDA:0,_ZSt4swapIPiEvRT_S2_
FNF:7
FNH:0
DA:47,0
DA:50,0
DA:76,0
DA:77,0
DA:101,0
DA:102,0
DA:166,0
DA:175,0
DA:176,0
DA:177,0
DA:178,0
LF:11
LH:0
end_of_record
SF:/usr/include/c++/4.8/bits/stl_algobase.h
FN:216,_ZSt3maxImERKT_S2_S2_
FN:277,_ZSt12__niter_baseIN9__gnu_cxx17__normal_iteratorIPKiSt6vectorIiSaIiEEEEENSt11_Niter_baseIT_E13iterator_typeES9_
FN:277,_ZSt12__niter_baseIPiENSt11_Niter_baseIT_E13iterator_typeES2_
FN:277,_ZSt12__niter_baseIPKiENSt11_Niter_baseIT_E13iterator_typeES3_
FN:288,_ZSt12__miter_baseIPKiENSt11_Miter_baseIT_E13iterator_typeES3_
FN:288,_ZSt12__miter_baseIN9__gnu_cxx17__normal_iteratorIPKiSt6vectorIiSaIiEEEEENSt11_Miter_baseIT_E13iterator_typeES9_
FN:368,_ZNSt11__copy_moveILb0ELb1ESt26random_access_iterator_tagE8__copy_mIiEEPT_PKS3_S6_S4_
FN:379,_ZSt13__copy_move_aILb0EPKiPiET1_T0_S4_S3_
FN:424,_ZSt14__copy_move_a2ILb0EPKiPiET1_T0_S4_S3_
FN:424,_ZSt14__copy_move_a2ILb0EN9__gnu_cxx17__normal_iteratorIPKiSt6vectorIiSaIiEEEEPiET1_T0_SA_S9_
FN:450,_ZSt4copyIPKiPiET0_T_S4_S3_
FN:450,_ZSt4copyIN9__gnu_cxx17__normal_iteratorIPKiSt6vectorIiSaIiEEEEPiET0_T_SA_S9_
FNDA:0,_ZSt3maxImERKT_S2_S2_
FNDA:0,_ZSt12__niter_baseIN9__gnu_cxx17__normal_iteratorIPKiSt6vectorIiSaIiEEEEENSt11_Niter_baseIT_E13iterator_typeES9_
FNDA:0,_ZSt12__niter_baseIPiENSt11_Niter_baseIT_E13iterator_typeES2_
FNDA:0,_ZSt12__niter_baseIPKiENSt11_Niter_baseIT_E13iterator_typeES3_
FNDA:0,_ZSt12__miter_baseIN9__gnu_cxx17__normal_iteratorIPKiSt6vectorIiSaIiEEEEENSt11_Miter_baseIT_E13iterator_typeES9_
FNDA:0,_ZSt12__miter_baseIPKiENSt11_Miter_baseIT_E13iterator_typeES3_
FNDA:0,_ZNSt11__copy_moveILb0ELb1ESt26random_access_iterator_tagE8__copy_mIiEEPT_PKS3_S6_S4_
FNDA:0,_ZSt13__copy_move_aILb0EPKiPiET1_T0_S4_S3_
FNDA:0,_ZSt14__copy_move_a2ILb0EN9__gnu_cxx17__normal_iteratorIPKiSt6vectorIiSaIiEEEEPiET1_T0_SA_S9_
FNDA:0,_ZSt14__copy_move_a2ILb0EPKiPiET1_T0_S4_S3_
FNDA:0,_ZSt4copyIN9__gnu_cxx17__normal_iteratorIPKiSt6vectorIiSaIiEEEEPiET0_T_SA_S9_
FNDA:0,_ZSt4copyIPKiPiET0_T_S4_S3_
FNF:12
FNH:0
DA:216,0
DA:221,0
DA:222,0
DA:223,0
DA:277,0
DA:278,0
DA:288,0
DA:289,0
DA:368,0
DA:370,0
DA:371,0
DA:372,0
DA:373,0
DA:379,0
DA:387,0
DA:390,0
DA:424,0
DA:428,0
DA:450,0
DA:460,0
LF:20
LH:0
end_of_record
SF:/usr/include/c++/4.8/bits/stl_construct.h
FN:74,_ZSt10_ConstructISt6vectorIiSaIiEEIRKS2_EEvPT_DpOT0_
FN:74,_ZSt10_ConstructISt6vectorIiSaIiEEIS2_EEvPT_DpOT0_
FN:92,_ZSt8_DestroyISt6vectorIiSaIiEEEvPT_
FN:100,_ZNSt12_Destroy_auxILb0EE9__destroyIPSt6vectorIiSaIiEEEEvT_S6_
FN:112,_ZNSt12_Destroy_auxILb1EE9__destroyIPiEEvT_S3_
FN:122,_ZSt8_DestroyIPiEvT_S1_
FN:122,_ZSt8_DestroyIPSt6vectorIiSaIiEEEvT_S4_
FN:148,_ZSt8_DestroyIPiiEvT_S1_RSaIT0_E
FN:148,_ZSt8_DestroyIPSt6vectorIiSaIiEES2_EvT_S4_RSaIT0_E
FNDA:0,_ZSt10_ConstructISt6vectorIiSaIiEEIS2_EEvPT_DpOT0_
FNDA:0,_ZSt10_ConstructISt6vectorIiSaIiEEIRKS2_EEvPT_DpOT0_
FNDA:0,_ZSt8_DestroyISt6vectorIiSaIiEEEvPT_
FNDA:0,_ZNSt12_Destroy_auxILb0EE9__destroyIPSt6vectorIiSaIiEEEEvT_S6_
FNDA:0,_ZNSt12_Destroy_auxILb1EE9__destroyIPiEEvT_S3_
FNDA:0,_ZSt8_DestroyIPSt6vectorIiSaIiEEEvT_S4_
FNDA:0,_ZSt8_DestroyIPiEvT_S1_
FNDA:0,_ZSt8_DestroyIPSt6vectorIiSaIiEES2_EvT_S4_RSaIT0_E
FNDA:0,_ZSt8_DestroyIPiiEvT_S1_RSaIT0_E
FNF:9
FNH:0
DA:74,0
DA:75,0
DA:92,0
DA:93,0
DA:100,0
DA:102,0
DA:103,0
DA:104,0
DA:112,0
DA:122,0
DA:126,0
DA:128,0
DA:148,0
DA:151,0
DA:152,0
LF:15
LH:0
end_of_record
SF:/usr/include/c++/4.8/bits/stl_iterator.h
FN:726,_ZN9__gnu_cxx17__normal_iteratorIPKiSt6vectorIiSaIiEEEC2ERKS2_
FN:726,_ZN9__gnu_cxx17__normal_iteratorIPKSt6vectorIiSaIiEES1_IS3_SaIS3_EEEC2ERKS5_
FN:738,_ZNK9__gnu_cxx17__normal_iteratorIPKSt6vectorIiSaIiEES1_IS3_SaIS3_EEEdeEv
FN:746,_ZN9__gnu_cxx17__normal_iteratorIPKSt6vectorIiSaIiEES1_IS3_SaIS3_EEEppEv
FN:790,_ZNK9__gnu_cxx17__normal_iteratorIPKiSt6vectorIiSaIiEEE4baseEv
FN:790,_ZNK9__gnu_cxx17__normal_iteratorIPKSt6vectorIiSaIiEES1_IS3_SaIS3_EEE4baseEv
FN:823,_ZN9__gnu_cxxneIPKSt6vectorIiSaIiEES1_IS3_SaIS3_EEEEbRKNS_17__normal_iteratorIT_T0_EESD_
FN:950,_ZNSt13move_iteratorIPSt6vectorIiSaIiEEEC2ES3_
FN:958,_ZNKSt13move_iteratorIPSt6vectorIiSaIiEEE4baseEv
FN:962,_ZNKSt13move_iteratorIPSt6vectorIiSaIiEEEdeEv
FN:970,_ZNSt13move_iteratorIPSt6vectorIiSaIiEEEppEv
FN:1037,_ZSteqIPSt6vectorIiSaIiEEEbRKSt13move_iteratorIT_ES8_
FN:1049,_ZStneIPSt6vectorIiSaIiEEEbRKSt13move_iteratorIT_ES8_
FN:1132,_ZSt32__make_move_if_noexcept_iteratorIPSt6vectorIiSaIiEESt13move_iteratorIS3_EET0_T_
FNDA:0,_ZN9__gnu_cxx17__normal_iteratorIPKiSt6vectorIiSaIiEEEC2ERKS2_
FNDA:0,_ZN9__gnu_cxx17__normal_iteratorIPKSt6vectorIiSaIiEES1_IS3_SaIS3_EEEC2ERKS5_
FNDA:0,_ZNK9__gnu_cxx17__normal_iteratorIPKSt6vectorIiSaIiEES1_IS3_SaIS3_EEEdeEv
FNDA:0,_ZN9__gnu_cxx17__normal_iteratorIPKSt6vectorIiSaIiEES1_IS3_SaIS3_EEEppEv
FNDA:0,_ZNK9__gnu_cxx17__normal_iteratorIPKiSt6vectorIiSaIiEEE4baseEv
FNDA:0,_ZNK9__gnu_cxx17__normal_iteratorIPKSt6vectorIiSaIiEES1_IS3_SaIS3_EEE4baseEv
FNDA:0,_ZN9__gnu_cxxneIPKSt6vectorIiSaIiEES1_IS3_SaIS3_EEEEbRKNS_17__normal_iteratorIT_T0_EESD_
FNDA:0,_ZNSt13move_iteratorIPSt6vectorIiSaIiEEEC2ES3_
FNDA:0,_ZNKSt13move_iteratorIPSt6vectorIiSaIiEEE4baseEv
FNDA:0,_ZNKSt13move_iteratorIPSt6vectorIiSaIiEEEdeEv
FNDA:0,_ZNSt13move_iteratorIPSt6vectorIiSaIiEEEppEv
FNDA:0,_ZSteqIPSt6vectorIiSaIiEEEbRKSt13move_iteratorIT_ES8_
FNDA:0,_ZStneIPSt6vectorIiSaIiEEEbRKSt13move_iteratorIT_ES8_
FNDA:0,_ZSt32__make_move_if_noexcept_iteratorIPSt6vectorIiSaIiEESt13move_iteratorIS3_EET0_T_
FNF:14
FNH:0
DA:726,0
DA:738,0
DA:739,0
DA:746,0
DA:748,0
DA:749,0
DA:790,0
DA:791,0
DA:823,0
DA:825,0
DA:950,0
DA:951,0
DA:958,0
DA:959,0
DA:962,0
DA:963,0
DA:970,0
DA:972,0
DA:973,0
DA:1037,0
DA:1039,0
DA:1049,0
DA:1051,0
DA:1132,0
DA:1133,0
LF:25
LH:0
end_of_record
SF:/usr/include/c++/4.8/bits/stl_iterator_base_funcs.h
FN:90,_ZSt10__distanceIPKiENSt15iterator_traitsIT_E15difference_typeES3_S3_St26random_access_iterator_tag
FN:90,_ZSt10__distanceIPcENSt15iterator_traitsIT_E15difference_typeES2_S2_St26random_access_iterator_tag
FN:114,_ZSt8distanceIPcENSt15iterator_traitsIT_E15difference_typeES2_S2_
FN:114,_ZSt8distanceIPKiENSt15iterator_traitsIT_E15difference_typeES3_S3_
FNDA:0,_ZSt10__distanceIPcENSt15iterator_traitsIT_E15difference_typeES2_S2_St26random_access_iterator_tag
FNDA:0,_ZSt10__distanceIPKiENSt15iterator_traitsIT_E15difference_typeES3_S3_St26random_access_iterator_tag
FNDA:0,_ZSt8distanceIPcENSt15iterator_traitsIT_E15difference_typeES2_S2_
FNDA:0,_ZSt8distanceIPKiENSt15iterator_traitsIT_E15difference_typeES3_S3_
FNF:4
FNH:0
DA:90,0
DA:96,0
DA:114,0
DA:118,0
LF:4
LH:0
end_of_record
SF:/usr/include/c++/4.8/bits/stl_iterator_base_types.h
FN:201,_ZSt19__iterator_categoryIPcENSt15iterator_traitsIT_E17iterator_categoryERKS2_
FN:201,_ZSt19__iterator_categoryIPKiENSt15iterator_traitsIT_E17iterator_categoryERKS3_
FN:212,_ZNSt10_Iter_baseIN9__gnu_cxx17__normal_iteratorIPKiSt6vectorIiSaIiEEEELb0EE7_S_baseES7_
FN:212,_ZNSt10_Iter_baseIPKiLb0EE7_S_baseES1_
FN:212,_ZNSt10_Iter_baseIPiLb0EE7_S_baseES0_
FN:220,_ZNSt10_Iter_baseIN9__gnu_cxx17__normal_iteratorIPKiSt6vectorIiSaIiEEEELb1EE7_S_baseES7_
FNDA:0,_ZSt19__iterator_categoryIPcENSt15iterator_traitsIT_E17iterator_categoryERKS2_
FNDA:0,_ZSt19__iterator_categoryIPKiENSt15iterator_traitsIT_E17iterator_categoryERKS3_
FNDA:0,_ZNSt10_Iter_baseIN9__gnu_cxx17__normal_iteratorIPKiSt6vectorIiSaIiEEEELb0EE7_S_baseES7_
FNDA:0,_ZNSt10_Iter_baseIPiLb0EE7_S_baseES0_
FNDA:0,_ZNSt10_Iter_baseIPKiLb0EE7_S_baseES1_
FNDA:0,_ZNSt10_Iter_baseIN9__gnu_cxx17__normal_iteratorIPKiSt6vectorIiSaIiEEEELb1EE7_S_baseES7_
FNF:6
FNH:0
DA:201,0
DA:202,0
DA:212,0
DA:213,0
DA:220,0
DA:221,0
LF:6
LH:0
end_of_record
SF:/usr/include/c++/4.8/bits/stl_uninitialized.h
FN:68,_ZNSt20__uninitialized_copyILb0EE13__uninit_copyIN9__gnu_cxx17__normal_iteratorIPKSt6vectorIiSaIiEES4_IS6_SaIS6_EEEEPS6_EET0_T_SE_SD_
FN:68,_ZNSt20__uninitialized_copyILb0EE13__uninit_copyISt13move_iteratorIPSt6vectorIiSaIiEEES6_EET0_T_S9_S8_
FN:91,_ZNSt20__uninitialized_copyILb1EE13__uninit_copyIPKiPiEET0_T_S6_S5_
FN:91,_ZNSt20__uninitialized_copyILb1EE13__uninit_copyIN9__gnu_cxx17__normal_iteratorIPKiSt6vectorIiSaIiEEEEPiEET0_T_SC_SB_
FN:107,_ZSt18uninitialized_copyISt13move_iteratorIPSt6vectorIiSaIiEEES4_ET0_T_S7_S6_
FN:107,_ZSt18uninitialized_copyIN9__gnu_cxx17__normal_iteratorIPKiSt6vectorIiSaIiEEEEPiET0_T_SA_S9_
FN:107,_ZSt18uninitialized_copyIN9__gnu_cxx17__normal_iteratorIPKSt6vectorIiSaIiEES2_IS4_SaIS4_EEEEPS4_ET0_T_SC_SB_
FN:107,_ZSt18uninitialized_copyIPKiPiET0_T_S4_S3_
FN:256,_ZSt22__uninitialized_copy_aISt13move_iteratorIPSt6vectorIiSaIiEEES4_S3_ET0_T_S7_S6_RSaIT1_E
FN:256,_ZSt22__uninitialized_copy_aIPKiPiiET0_T_S4_S3_RSaIT1_E
FN:256,_ZSt22__uninitialized_copy_aIN9__gnu_cxx17__normal_iteratorIPKSt6vectorIiSaIiEES2_IS4_SaIS4_EEEEPS4_S4_ET0_T_SC_SB_RSaIT1_E
FN:256,_ZSt22__uninitialized_copy_aIN9__gnu_cxx17__normal_iteratorIPKiSt6vectorIiSaIiEEEEPiiET0_T_SA_S9_RSaIT1_E
FN:274,_ZSt34__uninitialized_move_if_noexcept_aIPSt6vectorIiSaIiEES3_SaIS2_EET0_T_S6_S5_RT1_
FNDA:0,_ZNSt20__uninitialized_copyILb0EE13__uninit_copyISt13move_iteratorIPSt6vectorIiSaIiEEES6_EET0_T_S9_S8_
FNDA:0,_ZNSt20__uninitialized_copyILb0EE13__uninit_copyIN9__gnu_cxx17__normal_iteratorIPKSt6vectorIiSaIiEES4_IS6_SaIS6_EEEEPS6_EET0_T_SE_SD_
FNDA:0,_ZNSt20__uninitialized_copyILb1EE13__uninit_copyIN9__gnu_cxx17__normal_iteratorIPKiSt6vectorIiSaIiEEEEPiEET0_T_SC_SB_
FNDA:0,_ZNSt20__uninitialized_copyILb1EE13__uninit_copyIPKiPiEET0_T_S6_S5_
FNDA:0,_ZSt18uninitialized_copyIN9__gnu_cxx17__normal_iteratorIPKiSt6vectorIiSaIiEEEEPiET0_T_SA_S9_
FNDA:0,_ZSt18uninitialized_copyISt13move_iteratorIPSt6vectorIiSaIiEEES4_ET0_T_S7_S6_
FNDA:0,_ZSt18uninitialized_copyIPKiPiET0_T_S4_S3_
FNDA:0,_ZSt18uninitialized_copyIN9__gnu_cxx17__normal_iteratorIPKSt6vectorIiSaIiEES2_IS4_SaIS4_EEEEPS4_ET0_T_SC_SB_
FNDA:0,_ZSt22__uninitialized_copy_aIN9__gnu_cxx17__normal_iteratorIPKiSt6vectorIiSaIiEEEEPiiET0_T_SA_S9_RSaIT1_E
FNDA:0,_ZSt22__uninitialized_copy_aISt13move_iteratorIPSt6vectorIiSaIiEEES4_S3_ET0_T_S7_S6_RSaIT1_E
FNDA:0,_ZSt22__uninitialized_copy_aIPKiPiiET0_T_S4_S3_RSaIT1_E
FNDA:0,_ZSt22__uninitialized_copy_aIN9__gnu_cxx17__normal_iteratorIPKSt6vectorIiSaIiEES2_IS4_SaIS4_EEEEPS4_S4_ET0_T_SC_SB_RSaIT1_E
FNDA:0,_ZSt34__uninitialized_move_if_noexcept_aIPSt6vectorIiSaIiEES3_SaIS2_EET0_T_S6_S5_RT1_
FNF:13
FNH:0
DA:68,0
DA:71,0
DA:74,0
DA:75,0
DA:76,0
DA:78,=====
DA:80,=====
DA:81,=====
DA:91,0
DA:93,0
DA:107,0
DA:117,0
DA:256,0
DA:258,0
DA:274,0
DA:281,0
LF:16
LH:0
end_of_record
SF:/usr/include/c++/4.8/bits/stl_vector.h
FN:79,_ZNSt12_Vector_baseIiSaIiEE12_Vector_implD2Ev
FN:79,_ZNSt12_Vector_baseISt6vectorIiSaIiEESaIS2_EE12_Vector_implD2Ev
FN:86,_ZNSt12_Vector_baseISt6vectorIiSaIiEESaIS2_EE12_Vector_implC2Ev
FN:90,_ZNSt12_Vector_baseIiSaIiEE12_Vector_implC2ERKS0_
FN:90,_ZNSt12_Vector_baseISt6vectorIiSaIiEESaIS2_EE12_Vector_implC2ERKS3_
FN:95,_ZNSt12_Vector_baseIiSaIiEE12_Vector_implC2EOS0_
FN:101,_ZNSt12_Vector_baseIiSaIiEE12_Vector_impl12_M_swap_dataERS2_
FN:113,_ZNSt12_Vector_baseIiSaIiEE19_M_get_Tp_allocatorEv
FN:113,_ZNSt12_Vector_baseISt6vectorIiSaIiEESaIS2_EE19_M_get_Tp_allocatorEv
FN:117,_ZNKSt12_Vector_baseISt6vectorIiSaIiEESaIS2_EE19_M_get_Tp_allocatorEv
FN:117,_ZNKSt12_Vector_baseIiSaIiEE19_M_get_Tp_allocatorEv
FN:124,_ZNSt12_Vector_baseISt6vectorIiSaIiEESaIS2_EEC2Ev
FN:127,_ZNSt12_Vector_baseIiSaIiEEC2ERKS0_
FN:134,_ZNSt12_Vector_baseIiSaIiEEC2EmRKS0_
FN:134,_ZNSt12_Vector_baseISt6vectorIiSaIiEESaIS2_EEC2EmRKS3_
FN:142,_ZNSt12_Vector_baseIiSaIiEEC2EOS1_
FN:159,_ZNSt12_Vector_baseIiSaIiEED2Ev
FN:159,_ZNSt12_Vector_baseISt6vectorIiSaIiEESaIS2_EED2Ev
FN:167,_ZNSt12_Vector_baseIiSaIiEE11_M_allocateEm
FN:167,_ZNSt12_Vector_baseISt6vectorIiSaIiEESaIS2_EE11_M_allocateEm
FN:171,_ZNSt12_Vector_baseIiSaIiEE13_M_deallocateEPim
FN:171,_ZNSt12_Vector_baseISt6vectorIiSaIiEESaIS2_EE13_M_deallocateEPS2_m
FN:179,_ZNSt12_Vector_baseISt6vectorIiSaIiEESaIS2_EE17_M_create_storageEm
FN:179,_ZNSt12_Vector_baseIiSaIiEE17_M_create_storageEm
FN:248,_ZNSt6vectorIS_IiSaIiEESaIS1_EEC2Ev
FN:310,_ZNSt6vectorIiSaIiEEC2ERKS1_
FN:310,_ZNSt6vectorIS_IiSaIiEESaIS1_EEC2ERKS3_
FN:327,_ZNSt6vectorIiSaIiEEC2EOS1_
FN:364,_ZNSt6vectorIiSaIiEEC2ESt16initializer_listIiERKS0_
FN:414,_ZNSt6vectorIiSaIiEED2Ev
FN:414,_ZNSt6vectorIS_IiSaIiEESaIS1_EED2Ev
FN:547,_ZNKSt6vectorIiSaIiEE5beginEv
FN:547,_ZNKSt6vectorIS_IiSaIiEESaIS1_EE5beginEv
FN:565,_ZNKSt6vectorIS_IiSaIiEESaIS1_EE3endEv
FN:565,_ZNKSt6vectorIiSaIiEE3endEv
FN:645,_ZNKSt6vectorIiSaIiEE4sizeEv
FN:645,_ZNKSt6vectorIS_IiSaIiEESaIS1_EE4sizeEv
FN:650,_ZNKSt6vectorIS_IiSaIiEESaIS1_EE8max_sizeEv
FN:901,_ZNSt6vectorIS_IiSaIiEESaIS1_EE9push_backERKS1_
FN:1197,_ZNSt6vectorIiSaIiEE19_M_range_initializeIPKiEEvT_S5_St20forward_iterator_tag
FN:1336,_ZNKSt6vectorIS_IiSaIiEESaIS1_EE12_M_check_lenEmPKc
FNDA:0,_ZNSt12_Vector_baseISt6vectorIiSaIiEESaIS2_EE12_Vector_implD2Ev
FNDA:0,_ZNSt12_Vector_baseIiSaIiEE12_Vector_implD2Ev
FNDA:0,_ZNSt12_Vector_baseISt6vectorIiSaIiEESaIS2_EE12_Vector_implC2Ev
FNDA:0,_ZNSt12_Vector_baseISt6vectorIiSaIiEESaIS2_EE12_Vector_implC2ERKS3_
FNDA:0,_ZNSt12_Vector_baseIiSaIiEE12_Vector_implC2ERKS0_
FNDA:0,_ZNSt12_Vector_baseIiSaIiEE12_Vector_implC2EOS0_
FNDA:0,_ZNSt12_Vector_baseIiSaIiEE12_Vector_impl12_M_swap_dataERS2_
FNDA:0,_ZNSt12_Vector_baseISt6vectorIiSaIiEESaIS2_EE19_M_get_Tp_allocatorEv
FNDA:0,_ZNSt12_Vector_baseIiSaIiEE19_M_get_Tp_allocatorEv
FNDA:0,_ZNKSt12_Vector_baseIiSaIiEE19_M_get_Tp_allocatorEv
FNDA:0,_ZNKSt12_Vector_baseISt6vectorIiSaIiEESaIS2_EE19_M_get_Tp_allocatorEv
FNDA:0,_ZNSt12_Vector_baseISt6vectorIiSaIiEESaIS2_EEC2Ev
FNDA:0,_ZNSt12_Vector_baseIiSaIiEEC2ERKS0_
FNDA:0,_ZNSt12_Vector_baseIiSaIiEEC2EmRKS0_
FNDA:0,_ZNSt12_Vector_baseISt6vectorIiSaIiEESaIS2_EEC2EmRKS3_
FNDA:0,_ZNSt12_Vector_baseIiSaIiEEC2EOS1_
FNDA:0,_ZNSt12_Vector_baseISt6vectorIiSaIiEESaIS2_EED2Ev
FNDA:0,_ZNSt12_Vector_baseIiSaIiEED2Ev
FNDA:0,_ZNSt12_Vector_baseISt6vectorIiSaIiEESaIS2_EE11_M_allocateEm
FNDA:0,_ZNSt12_Vector_baseIiSaIiEE11_M_allocateEm
FNDA:0,_ZNSt12_Vector_baseISt6vectorIiSaIiEESaIS2_EE13_M_deallocateEPS2_m
FNDA:0,_ZNSt12_Vector_baseIiSaIiEE13_M_deallocateEPim
FNDA:0,_ZNSt12_Vector_baseIiSaIiEE17_M_create_storageEm
FNDA:0,_ZNSt12_Vector_baseISt6vectorIiSaIiEESaIS2_EE17_M_create_storageEm
FNDA:0,_ZNSt6vectorIS_IiSaIiEESaIS1_EEC2Ev
FNDA:0,_ZNSt6vectorIiSaIiEEC2ERKS1_
FNDA:0,_ZNSt6vectorIS_IiSaIiEESaIS1_EEC2ERKS3_
FNDA:0,_ZNSt6vectorIiSaIiEEC2EOS1_
FNDA:0,_ZNSt6vectorIiSaIiEEC2ESt16initializer_listIiERKS0_
FNDA:0,_ZNSt6vectorIS_IiSaIiEESaIS1_EED2Ev
FNDA:0,_ZNSt6vectorIiSaIiEED2Ev
FNDA:0,_ZNKSt6vectorIiSaIiEE5beginEv
FNDA:0,_ZNKSt6vectorIS_IiSaIiEESaIS1_EE5beginEv
FNDA:0,_ZNKSt6vectorIiSaIiEE3endEv
FNDA:0,_ZNKSt6vectorIS_IiSaIiEESaIS1_EE3endEv
FNDA:0,_ZNKSt6vectorIiSaIiEE4sizeEv
FNDA:0,_ZNKSt6vectorIS_IiSaIiEESaIS1_EE4sizeEv
FNDA:0,_ZNKSt6vectorIS_IiSaIiEESaIS1_EE8max_sizeEv
FNDA:0,_ZNSt6vectorIS_IiSaIiEESaIS1_EE9push_backERKS1_
FNDA:0,_ZNSt6vectorIiSaIiEE19_M_range_initializeIPKiEEvT_S5_St20forward_iterator_tag
FNDA:0,_ZNKSt6vectorIS_IiSaIiEESaIS1_EE12_M_check_lenEmPKc
FNF:41
FNH:0
DA:79,0
DA:86,0
DA:87,0
DA:88,0
DA:90,0
DA:91,0
DA:92,0
DA:95,0
DA:96,0
DA:97,0
DA:98,0
DA:101,0
DA:103,0
DA:104,0
DA:105,0
DA:106,0
DA:113,0
DA:114,0
DA:117,0
DA:118,0
DA:124,0
DA:125,0
DA:127,0
DA:128,0
DA:134,0
DA:135,0
DA:136,0
DA:142,0
DA:143,0
DA:144,0
DA:159,0
DA:160,0
DA:161,0
DA:167,0
DA:168,0
DA:171,0
DA:173,0
DA:174,0
DA:175,0
DA:179,0
DA:181,0
DA:182,0
DA:183,0
DA:184,0
DA:248,0
DA:249,0
DA:310,0
DA:312,0
DA:313,0
DA:316,0
DA:317,0
DA:327,0
DA:328,0
DA:364,0
DA:366,0
DA:368,0
DA:369,0
DA:370,0
DA:414,0
DA:415,0
DA:416,0
DA:547,0
DA:548,0
DA:565,0
DA:566,0
DA:645,0
DA:646,0
DA:650,0
DA:651,0
DA:901,0
DA:903,0
DA:905,0
DA:906,0
DA:907,0
DA:911,0
DA:915,0
DA:1197,0
DA:1200,0
DA:1201,0
DA:1202,0
DA:1203,0
DA:1206,0
DA:1207,0
DA:1336,0
DA:1338,0
DA:1339,0
DA:1341,0
DA:1342,0
LF:88
LH:0
end_of_record
SF:/usr/include/c++/4.8/bits/vector.tcc
FN:399,_ZNSt6vectorIS_IiSaIiEESaIS1_EE19_M_emplace_back_auxIIRKS1_EEEvDpOT_
FNDA:0,_ZNSt6vectorIS_IiSaIiEESaIS1_EE19_M_emplace_back_auxIIRKS1_EEEvDpOT_
FNF:1
FNH:0
DA:399,0
DA:403,0
DA:404,0
DA:405,0
DA:408,0
DA:409,0
DA:410,0
DA:412,0
DA:415,0
DA:417,0
DA:419,=====
DA:421,=====
DA:422,=====
DA:424,=====
DA:425,=====
DA:426,=====
DA:428,0
DA:429,0
DA:430,0
DA:432,0
DA:433,0
DA:434,0
DA:435,0
DA:436,0
LF:24
LH:0
end_of_record
SF:/usr/include/c++/4.8/ext/alloc_traits.h
FN:166,_ZN9__gnu_cxx14__alloc_traitsISaIiEE17_S_select_on_copyERKS1_
FN:166,_ZN9__gnu_cxx14__alloc_traitsISaISt6vectorIiSaIiEEEE17_S_select_on_copyERKS4_
FNDA:0,_ZN9__gnu_cxx14__alloc_traitsISaIiEE17_S_select_on_copyERKS1_
FNDA:0,_ZN9__gnu_cxx14__alloc_traitsISaISt6vectorIiSaIiEEEE17_S_select_on_copyERKS4_
FNF:2
FNH:0
DA:166,0
DA:167,0
LF:2
LH:0
end_of_record
SF:/usr/include/c++/4.8/ext/atomicity.h
FN:48,_ZN9__gnu_cxxL18__exchange_and_addEPVii
FN:65,_ZN9__gnu_cxxL25__exchange_and_add_singleEPii
FN:78,_ZN9__gnu_cxxL27__exchange_and_add_dispatchEPii
FNDA:0,_ZN9__gnu_cxxL18__exchange_and_addEPVii
FNDA:0,_ZN9__gnu_cxxL25__exchange_and_add_singleEPii
FNDA:0,_ZN9__gnu_cxxL27__exchange_and_add_dispatchEPii
FNF:3
FNH:0
DA:48,0
DA:49,0
DA:65,0
DA:67,0
DA:68,0
DA:69,0
DA:78,0
DA:81,0
DA:82,0
DA:84,0
LF:10
LH:0
end_of_record
SF:/usr/include/c++/4.8/ext/new_allocator.h
FN:79,_ZN9__gnu_cxx13new_allocatorISt6vectorIiSaIiEEEC2Ev
FN:79,_ZN9__gnu_cxx13new_allocatorIiEC2Ev
FN:79,_ZN9__gnu_cxx13new_allocatorIcEC2Ev
FN:81,_ZN9__gnu_cxx13new_allocatorIiEC2ERKS1_
FN:81,_ZN9__gnu_cxx13new_allocatorISt6vectorIiSaIiEEEC2ERKS4_
FN:81,_ZN9__gnu_cxx13new_allocatorIcEC2ERKS1_
FN:86,_ZN9__gnu_cxx13new_allocatorIiED2Ev
FN:86,_ZN9__gnu_cxx13new_allocatorIcED2Ev
FN:86,_ZN9__gnu_cxx13new_allocatorISt6vectorIiSaIiEEED2Ev
FN:99,_ZN9__gnu_cxx13new_allocatorIiE8allocateEmPKv
FN:99,_ZN9__gnu_cxx13new_allocatorISt6vectorIiSaIiEEE8allocateEmPKv
FN:109,_ZN9__gnu_cxx13new_allocatorIiE10deallocateEPim
FN:109,_ZN9__gnu_cxx13new_allocatorISt6vectorIiSaIiEEE10deallocateEPS3_m
FN:113,_ZNK9__gnu_cxx13new_allocatorIiE8max_sizeEv
FN:113,_ZNK9__gnu_cxx13new_allocatorISt6vectorIiSaIiEEE8max_sizeEv
FN:119,_ZN9__gnu_cxx13new_allocatorISt6vectorIiSaIiEEE9constructIS3_IRKS3_EEEvPT_DpOT0_
FN:124,_ZN9__gnu_cxx13new_allocatorISt6vectorIiSaIiEEE7destroyIS3_EEvPT_
FNDA:0,_ZN9__gnu_cxx13new_allocatorISt6vectorIiSaIiEEEC2Ev
FNDA:0,_ZN9__gnu_cxx13new_allocatorIiEC2Ev
FNDA:0,_ZN9__gnu_cxx13new_allocatorIcEC2Ev
FNDA:0,_ZN9__gnu_cxx13new_allocatorIiEC2ERKS1_
FNDA:0,_ZN9__gnu_cxx13new_allocatorISt6vectorIiSaIiEEEC2ERKS4_
FNDA:0,_ZN9__gnu_cxx13new_allocatorIcEC2ERKS1_
FNDA:0,_ZN9__gnu_cxx13new_allocatorISt6vectorIiSaIiEEED2Ev
FNDA:0,_ZN9__gnu_cxx13new_allocatorIiED2Ev
FNDA:0,_ZN9__gnu_cxx13new_allocatorIcED2Ev
FNDA:0,_ZN9__gnu_cxx13new_allocatorISt6vectorIiSaIiEEE8allocateEmPKv
FNDA:0,_ZN9__gnu_cxx13new_allocatorIiE8allocateEmPKv
FNDA:0,_ZN9__gnu_cxx13new_allocatorISt6vectorIiSaIiEEE10deallocateEPS3_m
FNDA:0,_ZN9__gnu_cxx13new_allocatorIiE10deallocateEPim
FNDA:0,_ZNK9__gnu_cxx13new_allocatorISt6vectorIiSaIiEEE8max_sizeEv
FNDA:0,_ZNK9__gnu_cxx13new_allocatorIiE8max_sizeEv
FNDA:0,_ZN9__gnu_cxx13new_allocatorISt6vectorIiSaIiEEE9constructIS3_IRKS3_EEEvPT_DpOT0_
FNDA:0,_ZN9__gnu_cxx13new_allocatorISt6vectorIiSaIiEEE7destroyIS3_EEvPT_
FNF:17
FNH:0
DA:79,0
DA:81,0
DA:86,0
DA:99,0
DA:101,0
DA:102,0
DA:104,0
DA:109,0
DA:110,0
DA:113,0
DA:114,0
DA:119,0
DA:120,0
DA:124,0
LF:14
LH:0
end_of_record
SF:/usr/include/c++/4.8/ext/type_traits.h
FN:150,_ZN9__gnu_cxx17__is_null_pointerIcEEbPT_
FNDA:0,_ZN9__gnu_cxx17__is_null_pointerIcEEbPT_
FNF:1
FNH:0
DA:150,0
DA:151,0
LF:2
LH:0
end_of_record
SF:/usr/include/c++/4.8/initializer_list
FN:71,_ZNKSt16initializer_listIiE4sizeEv
FN:75,_ZNKSt16initializer_listIiE5beginEv
FN:79,_ZNKSt16initializer_listIiE3endEv
FNDA:0,_ZNKSt16initializer_listIiE4sizeEv
FNDA:0,_ZNKSt16initializer_listIiE5beginEv
FNDA:0,_ZNKSt16initializer_listIiE3endEv
FNF:3
FNH:0
DA:71,0
DA:75,0
DA:79,0
LF:3
LH:0
end_of_record
SF:/usr/include/c++/4.8/iostream
DA:74,2
LF:1
LH:1
end_of_record
SF:/usr/include/c++/4.8/new
FN:109,_ZnwmPv
FN:115,_ZdlPvS_
FNDA:0,_ZnwmPv
FNDA:0,_ZdlPvS_
FNF:2
FNH:0
DA:109,0
DA:110,0
DA:115,0
LF:3
LH:0
end_of_record
SF:/usr/include/c++/4.8/sstream
FN:64,_ZNSt15basic_stringbufIcSt11char_traitsIcESaIcEED2Ev
FN:64,_ZNSt15basic_stringbufIcSt11char_traitsIcESaIcEED0Ev
FNDA:0,_ZNSt15basic_stringbufIcSt11char_traitsIcESaIcEED0Ev
FNDA:0,_ZNSt15basic_stringbufIcSt11char_traitsIcESaIcEED2Ev
FNF:2
FNH:0
DA:64,0
LF:1
LH:0
end_of_record
SF:/usr/include/x86_64-linux-gnu/c++/4.8/bits/gthr-default.h
FN:247,_ZL18__gthread_active_pv
FNDA:0,_ZL18__gthread_active_pv
FNF:1
FNH:0
DA:247,0
DA:251,0
LF:2
LH:0
end_of_record
TN:
SF:/home/ruslan/Facultad/Algo1 2017/TPI2017/TPIalgo1/salaDeReuniones_TPI/src/lib/googletest-master/googletest/include/gtest/gtest-message.h
FN:85,_ZN7testing7MessageD2Ev
FNDA:0,_ZN7testing7MessageD2Ev
FNF:1
FNH:0
DA:85,0
LF:1
LH:0
end_of_record
SF:/home/ruslan/Facultad/Algo1 2017/TPI2017/TPIalgo1/salaDeReuniones_TPI/src/lib/googletest-master/googletest/include/gtest/gtest-printers.h
FN:222,_ZN16testing_internal26DefaultPrintNonContainerToIiEEvRKT_PSo
FN:275,_ZN7testing8internal19FormatForComparisonIiiE6FormatERKi
FN:349,_ZN7testing8internal33FormatForComparisonFailureMessageIiiEESsRKT_RKT0_
FN:442,_ZN7testing8internal14DefaultPrintToIiEEvNS0_15WrapPrinterTypeILNS0_18DefaultPrinterTypeE3EEERKT_PSo
FN:459,_ZN7testing8internal7PrintToIiEEvRKT_PSo
FN:714,_ZN7testing8internal16UniversalPrinterIiE5PrintERKiPSo
FN:799,_ZN7testing8internal21UniversalTersePrinterIiE5PrintERKiPSo
FN:868,_ZN7testing8internal14UniversalPrintIiEEvRKT_PSo
FN:996,_ZN7testing13PrintToStringIiEESsRKT_
FNDA:0,_ZN16testing_internal26DefaultPrintNonContainerToIiEEvRKT_PSo
FNDA:0,_ZN7testing8internal19FormatForComparisonIiiE6FormatERKi
FNDA:0,_ZN7testing8internal33FormatForComparisonFailureMessageIiiEESsRKT_RKT0_
FNDA:0,_ZN7testing8internal14DefaultPrintToIiEEvNS0_15WrapPrinterTypeILNS0_18DefaultPrinterTypeE3EEERKT_PSo
FNDA:0,_ZN7testing8internal7PrintToIiEEvRKT_PSo
FNDA:0,_ZN7testing8internal16UniversalPrinterIiE5PrintERKiPSo
FNDA:0,_ZN7testing8internal21UniversalTersePrinterIiE5PrintERKiPSo
FNDA:0,_ZN7testing8internal14UniversalPrintIiEEvRKT_PSo
FNDA:0,_ZN7testing13PrintToStringIiEESsRKT_
FNF:9
FNH:0
DA:222,0
DA:249,0
DA:250,0
DA:275,0
DA:276,0
DA:349,0
DA:351,0
DA:442,0
DA:444,0
DA:445,0
DA:459,0
DA:481,0
DA:493,0
DA:494,0
DA:714,0
DA:723,0
DA:724,0
DA:799,0
DA:800,0
DA:801,0
DA:868,0
DA:872,0
DA:873,0
DA:996,0
DA:997,0
DA:998,0
DA:999,0
LF:27
LH:0
end_of_record
SF:/home/ruslan/Facultad/Algo1 2017/TPI2017/TPIalgo1/salaDeReuniones_TPI/src/lib/googletest-master/googletest/include/gtest/gtest.h
FN:256,_ZN7testing15AssertionResultD2Ev
FN:288,_ZNK7testing15AssertionResultcvbEv
FN:297,_ZNK7testing15AssertionResult7messageEv
FN:302,_ZNK7testing15AssertionResult15failure_messageEv
FN:389,_ZN7testing4Test13SetUpTestCaseEv
FN:397,_ZN7testing4Test16TearDownTestCaseEv
FN:474,_ZN7testing4Test5SetupEv
FN:1375,_ZN7testing8internal18CmpHelperEQFailureIiiEENS_15AssertionResultEPKcS4_RKT_RKT0_
FN:1387,_ZN7testing8internal11CmpHelperEQIiiEENS_15AssertionResultEPKcS4_RKT_RKT0_
FN:1417,_ZN7testing8internal8EqHelperILb0EE7CompareIiiEENS_15AssertionResultEPKcS6_RKT_RKT0_
FNDA:0,_ZN7testing15AssertionResultD2Ev
FNDA:0,_ZNK7testing15AssertionResultcvbEv
FNDA:0,_ZNK7testing15AssertionResult7messageEv
FNDA:0,_ZNK7testing15AssertionResult15failure_messageEv
FNDA:0,_ZN7testing4Test13SetUpTestCaseEv
FNDA:0,_ZN7testing4Test16TearDownTestCaseEv
FNDA:0,_ZN7testing4Test5SetupEv
FNDA:0,_ZN7testing8internal18CmpHelperEQFailureIiiEENS_15AssertionResultEPKcS4_RKT_RKT0_
FNDA:0,_ZN7testing8internal11CmpHelperEQIiiEENS_15AssertionResultEPKcS4_RKT_RKT0_
FNDA:0,_ZN7testing8internal8EqHelperILb0EE7CompareIiiEENS_15AssertionResultEPKcS6_RKT_RKT0_
FNF:10
FNH:0
DA:256,0
DA:288,0
DA:297,0
DA:298,0
DA:302,0
DA:389,0
DA:397,0
DA:474,0
DA:1375,0
DA:1382,0
DA:1387,0
DA:1392,0
DA:1393,0
DA:1397,0
DA:1417,0
DA:1421,0
LF:16
LH:0
end_of_record
SF:/home/ruslan/Facultad/Algo1 2017/TPI2017/TPIalgo1/salaDeReuniones_TPI/src/lib/googletest-master/googletest/include/gtest/internal/gtest-internal.h
FN:466,_ZN7testing8internal15TestFactoryBaseD0Ev
FN:466,_ZN7testing8internal15TestFactoryBaseD2Ev
FN:473,_ZN7testing8internal15TestFactoryBaseC2Ev
FN:482,_ZN7testing8internal15TestFactoryImplI52encontrarAparicionTEST_smallEncontrarAparicion2_TestED0Ev
FN:482,_ZN7testing8internal15TestFactoryImplI51encontrarAparicionTEST_smallEncontrarAparicion_TestEC2Ev
FN:482,_ZN7testing8internal15TestFactoryImplI46encontrarAparicionTEST_encontrarAparicion_TestEC2Ev
FN:482,_ZN7testing8internal15TestFactoryImplI46encontrarAparicionTEST_encontrarAparicion_TestED2Ev
FN:482,_ZN7testing8internal15TestFactoryImplI46encontrarAparicionTEST_encontrarAparicion_TestED0Ev
FN:482,_ZN7testing8internal15TestFactoryImplI51encontrarAparicionTEST_smallEncontrarAparicion_TestED0Ev
FN:482,_ZN7testing8internal15TestFactoryImplI51encontrarAparicionTEST_smallEncontrarAparicion_TestED2Ev
FN:482,_ZN7testing8internal15TestFactoryImplI52encontrarAparicionTEST_smallEncontrarAparicion2_TestEC2Ev
FN:482,_ZN7testing8internal15TestFactoryImplI52encontrarAparicionTEST_smallEncontrarAparicion2_TestED2Ev
FN:484,_ZN7testing8internal15TestFactoryImplI51encontrarAparicionTEST_smallEncontrarAparicion_TestE10CreateTestEv
FN:484,_ZN7testing8internal15TestFactoryImplI52encontrarAparicionTEST_smallEncontrarAparicion2_TestE10CreateTestEv
FN:484,_ZN7testing8internal15TestFactoryImplI46encontrarAparicionTEST_encontrarAparicion_TestE10CreateTestEv
FN:504,_ZN7testing8internal12CodeLocationD2Ev
FN:505,_ZN7testing8internal12CodeLocationC2ERKSsi
FNDA:0,_ZN7testing8internal15TestFactoryBaseD0Ev
FNDA:0,_ZN7testing8internal15TestFactoryBaseD2Ev
FNDA:0,_ZN7testing8internal15TestFactoryBaseC2Ev
FNDA:2,_ZN7testing8internal15TestFactoryImplI51encontrarAparicionTEST_smallEncontrarAparicion_TestED0Ev
FNDA:2,_ZN7testing8internal15TestFactoryImplI51encontrarAparicionTEST_smallEncontrarAparicion_TestED2Ev
FNDA:2,_ZN7testing8internal15TestFactoryImplI52encontrarAparicionTEST_smallEncontrarAparicion2_TestED0Ev
FNDA:2,_ZN7testing8internal15TestFactoryImplI52encontrarAparicionTEST_smallEncontrarAparicion2_TestED2Ev
FNDA:2,_ZN7testing8internal15TestFactoryImplI46encontrarAparicionTEST_encontrarAparicion_TestED0Ev
FNDA:2,_ZN7testing8internal15TestFactoryImplI46encontrarAparicionTEST_encontrarAparicion_TestED2Ev
FNDA:2,_ZN7testing8internal15TestFactoryImplI46encontrarAparicionTEST_encontrarAparicion_TestEC2Ev
FNDA:2,_ZN7testing8internal15TestFactoryImplI52encontrarAparicionTEST_smallEncontrarAparicion2_TestEC2Ev
FNDA:2,_ZN7testing8internal15TestFactoryImplI51encontrarAparicionTEST_smallEncontrarAparicion_TestEC2Ev
FNDA:2,_ZN7testing8internal15TestFactoryImplI51encontrarAparicionTEST_smallEncontrarAparicion_TestE10CreateTestEv
FNDA:2,_ZN7testing8internal15TestFactoryImplI52encontrarAparicionTEST_smallEncontrarAparicion2_TestE10CreateTestEv
FNDA:2,_ZN7testing8internal15TestFactoryImplI46encontrarAparicionTEST_encontrarAparicion_TestE10CreateTestEv
FNDA:0,_ZN7testing8internal12CodeLocationD2Ev
FNDA:0,_ZN7testing8internal12CodeLocationC2ERKSsi
FNF:17
FNH:12
DA:466,0
DA:473,0
DA:482,18
DA:484,6
DA:504,0
DA:505,0
DA:506,0
LF:7
LH:2
end_of_record
SF:/home/ruslan/Facultad/Algo1 2017/TPI2017/TPIalgo1/salaDeReuniones_TPI/src/lib/googletest-master/googletest/include/gtest/internal/gtest-port.h
FN:1157,_ZN7testing8internal10scoped_ptrISt18basic_stringstreamIcSt11char_traitsIcESaIcEEED2Ev
FN:1157,_ZN7testing8internal10scoped_ptrISsED2Ev
FN:1160,_ZNK7testing8internal10scoped_ptrISsEptEv
FN:1161,_ZNK7testing8internal10scoped_ptrISsE3getEv
FN:1169,_ZN7testing8internal10scoped_ptrISsE5resetEPSs
FN:1169,_ZN7testing8internal10scoped_ptrISt18basic_stringstreamIcSt11char_traitsIcESaIcEEE5resetEPS6_
FNDA:0,_ZN7testing8internal10scoped_ptrISsED2Ev
FNDA:0,_ZN7testing8internal10scoped_ptrISt18basic_stringstreamIcSt11char_traitsIcESaIcEEED2Ev
FNDA:0,_ZNK7testing8internal10scoped_ptrISsEptEv
FNDA:0,_ZNK7testing8internal10scoped_ptrISsE3getEv
FNDA:0,_ZN7testing8internal10scoped_ptrISt18basic_stringstreamIcSt11char_traitsIcESaIcEEE5resetEPS6_
FNDA:0,_ZN7testing8internal10scoped_ptrISsE5resetEPSs
FNF:6
FNH:0
DA:1157,0
DA:1160,0
DA:1161,0
DA:1169,0
DA:1170,0
DA:1171,0
DA:1172,0
DA:1174,0
DA:1176,0
LF:9
LH:0
end_of_record
SF:/home/ruslan/Facultad/Algo1 2017/TPI2017/TPIalgo1/salaDeReuniones_TPI/src/tests/encontrarAparicionTEST.cpp
FN:8,_ZN51encontrarAparicionTEST_smallEncontrarAparicion_Test8TestBodyEv
FN:8,_ZN51encontrarAparicionTEST_smallEncontrarAparicion_TestC2Ev
FN:8,_ZN51encontrarAparicionTEST_smallEncontrarAparicion_TestD0Ev
FN:8,_Z41__static_initialization_and_destruction_0ii
FN:8,_ZN51encontrarAparicionTEST_smallEncontrarAparicion_TestD2Ev
FN:16,_ZN52encontrarAparicionTEST_smallEncontrarAparicion2_Test8TestBodyEv
FN:16,_ZN52encontrarAparicionTEST_smallEncontrarAparicion2_TestC2Ev
FN:16,_ZN52encontrarAparicionTEST_smallEncontrarAparicion2_TestD0Ev
FN:16,_ZN52encontrarAparicionTEST_smallEncontrarAparicion2_TestD2Ev
FN:24,_ZN46encontrarAparicionTEST_encontrarAparicion_TestD2Ev
FN:24,_ZN46encontrarAparicionTEST_encontrarAparicion_TestD0Ev
FN:24,_ZN46encontrarAparicionTEST_encontrarAparicion_Test8TestBodyEv
FN:24,_ZN46encontrarAparicionTEST_encontrarAparicion_TestC2Ev
FN:34,_GLOBAL__sub_I__ZN51encontrarAparicionTEST_smallEncontrarAparicion_Test10test_info_E
FNDA:2,_ZN51encontrarAparicionTEST_smallEncontrarAparicion_TestD0Ev
FNDA:2,_ZN51encontrarAparicionTEST_smallEncontrarAparicion_TestD2Ev
FNDA:2,_ZN51encontrarAparicionTEST_smallEncontrarAparicion_Test8TestBodyEv
FNDA:2,_ZN51encontrarAparicionTEST_smallEncontrarAparicion_TestC2Ev
FNDA:2,_ZN52encontrarAparicionTEST_smallEncontrarAparicion2_TestD0Ev
FNDA:2,_ZN52encontrarAparicionTEST_smallEncontrarAparicion2_TestD2Ev
FNDA:2,_ZN52encontrarAparicionTEST_smallEncontrarAparicion2_Test8TestBodyEv
FNDA:2,_ZN52encontrarAparicionTEST_smallEncontrarAparicion2_TestC2Ev
FNDA:2,_ZN46encontrarAparicionTEST_encontrarAparicion_TestD0Ev
FNDA:2,_ZN46encontrarAparicionTEST_encontrarAparicion_TestD2Ev
FNDA:2,_ZN46encontrarAparicionTEST_encontrarAparicion_Test8TestBodyEv
FNDA:2,_ZN46encontrarAparicionTEST_encontrarAparicion_TestC2Ev
FNDA:2,_GLOBAL__sub_I__ZN51encontrarAparicionTEST_smallEncontrarAparicion_Test10test_info_E
FNDA:2,_Z41__static_initialization_and_destruction_0ii
FNF:14
FNH:14
DA:8,10
DA:9,2
DA:10,4
DA:11,2
DA:12,2
DA:13,4
DA:14,2
DA:16,10
DA:17,2
DA:18,4
DA:19,2
DA:20,2
DA:21,4
DA:22,2
DA:24,10
DA:27,2
DA:28,4
DA:29,2
DA:30,2
DA:31,4
DA:32,2
DA:33,4
DA:34,8
LF:23
LH:23
end_of_record
SF:/usr/include/c++/4.8/bits/alloc_traits.h
FN:337,_ZNSt16allocator_traitsISaIiEE9_S_selectIKS0_EENSt9enable_ifIXntsrNS1_15__select_helperIT_EE5valueES6_E4typeERS6_
FN:427,_ZNSt16allocator_traitsISaIiEE37select_on_container_copy_constructionERKS0_
FNDA:0,_ZNSt16allocator_traitsISaIiEE9_S_selectIKS0_EENSt9enable_ifIXntsrNS1_15__select_helperIT_EE5valueES6_E4typeERS6_
FNDA:0,_ZNSt16allocator_traitsISaIiEE37select_on_container_copy_constructionERKS0_
FNF:2
FNH:0
DA:337,0
DA:338,0
DA:427,0
DA:428,0
LF:4
LH:0
end_of_record
SF:/usr/include/c++/4.8/bits/allocator.h
FN:113,_ZNSaIiEC2Ev
FN:115,_ZNSaIiEC2ERKS_
FN:121,_ZNSaIiED2Ev
FN:133,_ZSteqIcEbRKSaIT_ES3_
FNDA:0,_ZNSaIiEC2Ev
FNDA:0,_ZNSaIiEC2ERKS_
FNDA:0,_ZNSaIiED2Ev
FNDA:0,_ZSteqIcEbRKSaIT_ES3_
FNF:4
FNH:0
DA:113,0
DA:115,0
DA:116,0
DA:121,0
DA:133,0
DA:134,0
LF:6
LH:0
end_of_record
SF:/usr/include/c++/4.8/bits/basic_string.h
FN:272,_ZNSs12_Alloc_hiderD2Ev
FN:1721,_ZNSs16_S_construct_auxIPcEES0_T_S1_RKSaIcESt12__false_type
FN:1743,_ZNSs12_S_constructIPcEES0_T_S1_RKSaIcE
FNDA:0,_ZNSs12_Alloc_hiderD2Ev
FNDA:0,_ZNSs16_S_construct_auxIPcEES0_T_S1_RKSaIcESt12__false_type
FNDA:0,_ZNSs12_S_constructIPcEES0_T_S1_RKSaIcE
FNF:3
FNH:0
DA:272,0
DA:1721,0
DA:1725,0
DA:1743,0
DA:1746,0
LF:5
LH:0
end_of_record
SF:/usr/include/c++/4.8/bits/basic_string.tcc
FN:123,_ZNSs12_S_constructIPcEES0_T_S1_RKSaIcESt20forward_iterator_tag
FN:227,_ZNSsC2IPcEET_S1_RKSaIcE
FNDA:0,_ZNSs12_S_constructIPcEES0_T_S1_RKSaIcESt20forward_iterator_tag
FNDA:0,_ZNSsC2IPcEET_S1_RKSaIcE
FNF:2
FNH:0
DA:123,0
DA:128,0
DA:129,0
DA:132,0
DA:133,0
DA:136,0
DA:138,0
DA:140,0
DA:141,=====
DA:143,=====
DA:144,=====
DA:146,0
DA:147,0
DA:227,0
DA:229,0
DA:230,0
LF:16
LH:0
end_of_record
SF:/usr/include/c++/4.8/bits/char_traits.h
FN:242,_ZNSt11char_traitsIcE6assignERcRKc
FN:270,_ZNSt11char_traitsIcE4copyEPcPKcm
FNDA:0,_ZNSt11char_traitsIcE6assignERcRKc
FNDA:0,_ZNSt11char_traitsIcE4copyEPcPKcm
FNF:2
FNH:0
DA:242,0
DA:243,0
DA:270,0
DA:271,0
LF:4
LH:0
end_of_record
SF:/usr/include/c++/4.8/bits/ios_base.h
FN:123,_ZStorSt13_Ios_OpenmodeS_
FNDA:0,_ZStorSt13_Ios_OpenmodeS_
FNF:1
FNH:0
DA:123,0
DA:124,0
LF:2
LH:0
end_of_record
SF:/usr/include/c++/4.8/bits/stl_algobase.h
FN:277,_ZSt12__niter_baseIN9__gnu_cxx17__normal_iteratorIPKiSt6vectorIiSaIiEEEEENSt11_Niter_baseIT_E13iterator_typeES9_
FN:277,_ZSt12__niter_baseIPiENSt11_Niter_baseIT_E13iterator_typeES2_
FN:277,_ZSt12__niter_baseIPKiENSt11_Niter_baseIT_E13iterator_typeES3_
FN:288,_ZSt12__miter_baseIPKiENSt11_Miter_baseIT_E13iterator_typeES3_
FN:288,_ZSt12__miter_baseIN9__gnu_cxx17__normal_iteratorIPKiSt6vectorIiSaIiEEEEENSt11_Miter_baseIT_E13iterator_typeES9_
FN:368,_ZNSt11__copy_moveILb0ELb1ESt26random_access_iterator_tagE8__copy_mIiEEPT_PKS3_S6_S4_
FN:379,_ZSt13__copy_move_aILb0EPKiPiET1_T0_S4_S3_
FN:424,_ZSt14__copy_move_a2ILb0EN9__gnu_cxx17__normal_iteratorIPKiSt6vectorIiSaIiEEEEPiET1_T0_SA_S9_
FN:424,_ZSt14__copy_move_a2ILb0EPKiPiET1_T0_S4_S3_
FN:450,_ZSt4copyIPKiPiET0_T_S4_S3_
FN:450,_ZSt4copyIN9__gnu_cxx17__normal_iteratorIPKiSt6vectorIiSaIiEEEEPiET0_T_SA_S9_
FNDA:0,_ZSt12__niter_baseIPKiENSt11_Niter_baseIT_E13iterator_typeES3_
FNDA:0,_ZSt12__niter_baseIPiENSt11_Niter_baseIT_E13iterator_typeES2_
FNDA:0,_ZSt12__niter_baseIN9__gnu_cxx17__normal_iteratorIPKiSt6vectorIiSaIiEEEEENSt11_Niter_baseIT_E13iterator_typeES9_
FNDA:0,_ZSt12__miter_baseIPKiENSt11_Miter_baseIT_E13iterator_typeES3_
FNDA:0,_ZSt12__miter_baseIN9__gnu_cxx17__normal_iteratorIPKiSt6vectorIiSaIiEEEEENSt11_Miter_baseIT_E13iterator_typeES9_
FNDA:0,_ZNSt11__copy_moveILb0ELb1ESt26random_access_iterator_tagE8__copy_mIiEEPT_PKS3_S6_S4_
FNDA:0,_ZSt13__copy_move_aILb0EPKiPiET1_T0_S4_S3_
FNDA:0,_ZSt14__copy_move_a2ILb0EPKiPiET1_T0_S4_S3_
FNDA:0,_ZSt14__copy_move_a2ILb0EN9__gnu_cxx17__normal_iteratorIPKiSt6vectorIiSaIiEEEEPiET1_T0_SA_S9_
FNDA:0,_ZSt4copyIPKiPiET0_T_S4_S3_
FNDA:0,_ZSt4copyIN9__gnu_cxx17__normal_iteratorIPKiSt6vectorIiSaIiEEEEPiET0_T_SA_S9_
FNF:11
FNH:0
DA:277,0
DA:278,0
DA:288,0
DA:289,0
DA:368,0
DA:370,0
DA:371,0
DA:372,0
DA:373,0
DA:379,0
DA:387,0
DA:390,0
DA:424,0
DA:428,0
DA:450,0
DA:460,0
LF:16
LH:0
end_of_record
SF:/usr/include/c++/4.8/bits/stl_construct.h
FN:112,_ZNSt12_Destroy_auxILb1EE9__destroyIPiEEvT_S3_
FN:122,_ZSt8_DestroyIPiEvT_S1_
FN:148,_ZSt8_DestroyIPiiEvT_S1_RSaIT0_E
FNDA:0,_ZNSt12_Destroy_auxILb1EE9__destroyIPiEEvT_S3_
FNDA:0,_ZSt8_DestroyIPiEvT_S1_
FNDA:0,_ZSt8_DestroyIPiiEvT_S1_RSaIT0_E
FNF:3
FNH:0
DA:112,0
DA:122,0
DA:126,0
DA:128,0
DA:148,0
DA:151,0
DA:152,0
LF:7
LH:0
end_of_record
SF:/usr/include/c++/4.8/bits/stl_iterator.h
FN:726,_ZN9__gnu_cxx17__normal_iteratorIPKiSt6vectorIiSaIiEEEC2ERKS2_
FN:790,_ZNK9__gnu_cxx17__normal_iteratorIPKiSt6vectorIiSaIiEEE4baseEv
FNDA:0,_ZN9__gnu_cxx17__normal_iteratorIPKiSt6vectorIiSaIiEEEC2ERKS2_
FNDA:0,_ZNK9__gnu_cxx17__normal_iteratorIPKiSt6vectorIiSaIiEEE4baseEv
FNF:2
FNH:0
DA:726,0
DA:790,0
DA:791,0
LF:3
LH:0
end_of_record
SF:/usr/include/c++/4.8/bits/stl_iterator_base_funcs.h
FN:90,_ZSt10__distanceIPKiENSt15iterator_traitsIT_E15difference_typeES3_S3_St26random_access_iterator_tag
FN:90,_ZSt10__distanceIPcENSt15iterator_traitsIT_E15difference_typeES2_S2_St26random_access_iterator_tag
FN:114,_ZSt8distanceIPcENSt15iterator_traitsIT_E15difference_typeES2_S2_
FN:114,_ZSt8distanceIPKiENSt15iterator_traitsIT_E15difference_typeES3_S3_
FNDA:0,_ZSt10__distanceIPcENSt15iterator_traitsIT_E15difference_typeES2_S2_St26random_access_iterator_tag
FNDA:0,_ZSt10__distanceIPKiENSt15iterator_traitsIT_E15difference_typeES3_S3_St26random_access_iterator_tag
FNDA:0,_ZSt8distanceIPcENSt15iterator_traitsIT_E15difference_typeES2_S2_
FNDA:0,_ZSt8distanceIPKiENSt15iterator_traitsIT_E15difference_typeES3_S3_
FNF:4
FNH:0
DA:90,0
DA:96,0
DA:114,0
DA:118,0
LF:4
LH:0
end_of_record
SF:/usr/include/c++/4.8/bits/stl_iterator_base_types.h
FN:201,_ZSt19__iterator_categoryIPKiENSt15iterator_traitsIT_E17iterator_categoryERKS3_
FN:201,_ZSt19__iterator_categoryIPcENSt15iterator_traitsIT_E17iterator_categoryERKS2_
FN:212,_ZNSt10_Iter_baseIN9__gnu_cxx17__normal_iteratorIPKiSt6vectorIiSaIiEEEELb0EE7_S_baseES7_
FN:212,_ZNSt10_Iter_baseIPiLb0EE7_S_baseES0_
FN:212,_ZNSt10_Iter_baseIPKiLb0EE7_S_baseES1_
FN:220,_ZNSt10_Iter_baseIN9__gnu_cxx17__normal_iteratorIPKiSt6vectorIiSaIiEEEELb1EE7_S_baseES7_
FNDA:0,_ZSt19__iterator_categoryIPcENSt15iterator_traitsIT_E17iterator_categoryERKS2_
FNDA:0,_ZSt19__iterator_categoryIPKiENSt15iterator_traitsIT_E17iterator_categoryERKS3_
FNDA:0,_ZNSt10_Iter_baseIPiLb0EE7_S_baseES0_
FNDA:0,_ZNSt10_Iter_baseIPKiLb0EE7_S_baseES1_
FNDA:0,_ZNSt10_Iter_baseIN9__gnu_cxx17__normal_iteratorIPKiSt6vectorIiSaIiEEEELb0EE7_S_baseES7_
FNDA:0,_ZNSt10_Iter_baseIN9__gnu_cxx17__normal_iteratorIPKiSt6vectorIiSaIiEEEELb1EE7_S_baseES7_
FNF:6
FNH:0
DA:201,0
DA:202,0
DA:212,0
DA:213,0
DA:220,0
DA:221,0
LF:6
LH:0
end_of_record
SF:/usr/include/c++/4.8/bits/stl_uninitialized.h
FN:91,_ZNSt20__uninitialized_copyILb1EE13__uninit_copyIPKiPiEET0_T_S6_S5_
FN:91,_ZNSt20__uninitialized_copyILb1EE13__uninit_copyIN9__gnu_cxx17__normal_iteratorIPKiSt6vectorIiSaIiEEEEPiEET0_T_SC_SB_
FN:107,_ZSt18uninitialized_copyIN9__gnu_cxx17__normal_iteratorIPKiSt6vectorIiSaIiEEEEPiET0_T_SA_S9_
FN:107,_ZSt18uninitialized_copyIPKiPiET0_T_S4_S3_
FN:256,_ZSt22__uninitialized_copy_aIN9__gnu_cxx17__normal_iteratorIPKiSt6vectorIiSaIiEEEEPiiET0_T_SA_S9_RSaIT1_E
FN:256,_ZSt22__uninitialized_copy_aIPKiPiiET0_T_S4_S3_RSaIT1_E
FNDA:0,_ZNSt20__uninitialized_copyILb1EE13__uninit_copyIPKiPiEET0_T_S6_S5_
FNDA:0,_ZNSt20__uninitialized_copyILb1EE13__uninit_copyIN9__gnu_cxx17__normal_iteratorIPKiSt6vectorIiSaIiEEEEPiEET0_T_SC_SB_
FNDA:0,_ZSt18uninitialized_copyIPKiPiET0_T_S4_S3_
FNDA:0,_ZSt18uninitialized_copyIN9__gnu_cxx17__normal_iteratorIPKiSt6vectorIiSaIiEEEEPiET0_T_SA_S9_
FNDA:0,_ZSt22__uninitialized_copy_aIPKiPiiET0_T_S4_S3_RSaIT1_E
FNDA:0,_ZSt22__uninitialized_copy_aIN9__gnu_cxx17__normal_iteratorIPKiSt6vectorIiSaIiEEEEPiiET0_T_SA_S9_RSaIT1_E
FNF:6
FNH:0
DA:91,0
DA:93,0
DA:107,0
DA:117,0
DA:256,0
DA:258,0
LF:6
LH:0
end_of_record
SF:/usr/include/c++/4.8/bits/stl_vector.h
FN:79,_ZNSt12_Vector_baseIiSaIiEE12_Vector_implD2Ev
FN:90,_ZNSt12_Vector_baseIiSaIiEE12_Vector_implC2ERKS0_
FN:113,_ZNSt12_Vector_baseIiSaIiEE19_M_get_Tp_allocatorEv
FN:117,_ZNKSt12_Vector_baseIiSaIiEE19_M_get_Tp_allocatorEv
FN:127,_ZNSt12_Vector_baseIiSaIiEEC2ERKS0_
FN:134,_ZNSt12_Vector_baseIiSaIiEEC2EmRKS0_
FN:159,_ZNSt12_Vector_baseIiSaIiEED2Ev
FN:167,_ZNSt12_Vector_baseIiSaIiEE11_M_allocateEm
FN:171,_ZNSt12_Vector_baseIiSaIiEE13_M_deallocateEPim
FN:179,_ZNSt12_Vector_baseIiSaIiEE17_M_create_storageEm
FN:310,_ZNSt6vectorIiSaIiEEC2ERKS1_
FN:364,_ZNSt6vectorIiSaIiEEC2ESt16initializer_listIiERKS0_
FN:414,_ZNSt6vectorIiSaIiEED2Ev
FN:547,_ZNKSt6vectorIiSaIiEE5beginEv
FN:565,_ZNKSt6vectorIiSaIiEE3endEv
FN:645,_ZNKSt6vectorIiSaIiEE4sizeEv
FN:1197,_ZNSt6vectorIiSaIiEE19_M_range_initializeIPKiEEvT_S5_St20forward_iterator_tag
FNDA:0,_ZNSt12_Vector_baseIiSaIiEE12_Vector_implD2Ev
FNDA:0,_ZNSt12_Vector_baseIiSaIiEE12_Vector_implC2ERKS0_
FNDA:0,_ZNSt12_Vector_baseIiSaIiEE19_M_get_Tp_allocatorEv
FNDA:0,_ZNKSt12_Vector_baseIiSaIiEE19_M_get_Tp_allocatorEv
FNDA:0,_ZNSt12_Vector_baseIiSaIiEEC2ERKS0_
FNDA:0,_ZNSt12_Vector_baseIiSaIiEEC2EmRKS0_
FNDA:0,_ZNSt12_Vector_baseIiSaIiEED2Ev
FNDA:0,_ZNSt12_Vector_baseIiSaIiEE11_M_allocateEm
FNDA:0,_ZNSt12_Vector_baseIiSaIiEE13_M_deallocateEPim
FNDA:0,_ZNSt12_Vector_baseIiSaIiEE17_M_create_storageEm
FNDA:0,_ZNSt6vectorIiSaIiEEC2ERKS1_
FNDA:0,_ZNSt6vectorIiSaIiEEC2ESt16initializer_listIiERKS0_
FNDA:0,_ZNSt6vectorIiSaIiEED2Ev
FNDA:0,_ZNKSt6vectorIiSaIiEE5beginEv
FNDA:0,_ZNKSt6vectorIiSaIiEE3endEv
FNDA:0,_ZNKSt6vectorIiSaIiEE4sizeEv
FNDA:0,_ZNSt6vectorIiSaIiEE19_M_range_initializeIPKiEEvT_S5_St20forward_iterator_tag
FNF:17
FNH:0
DA:79,0
DA:90,0
DA:91,0
DA:92,0
DA:113,0
DA:114,0
DA:117,0
DA:118,0
DA:127,0
DA:128,0
DA:134,0
DA:135,0
DA:136,0
DA:159,0
DA:160,0
DA:161,0
DA:167,0
DA:168,0
DA:171,0
DA:173,0
DA:174,0
DA:175,0
DA:179,0
DA:181,0
DA:182,0
DA:183,0
DA:184,0
DA:310,0
DA:312,0
DA:313,0
DA:316,0
DA:317,0
DA:364,0
DA:366,0
DA:368,0
DA:369,0
DA:370,0
DA:414,0
DA:415,0
DA:416,0
DA:547,0
DA:548,0
DA:565,0
DA:566,0
DA:645,0
DA:646,0
DA:1197,0
DA:1200,0
DA:1201,0
DA:1202,0
DA:1203,0
DA:1206,0
DA:1207,0
LF:53
LH:0
end_of_record
SF:/usr/include/c++/4.8/ext/alloc_traits.h
FN:166,_ZN9__gnu_cxx14__alloc_traitsISaIiEE17_S_select_on_copyERKS1_
FNDA:0,_ZN9__gnu_cxx14__alloc_traitsISaIiEE17_S_select_on_copyERKS1_
FNF:1
FNH:0
DA:166,0
DA:167,0
LF:2
LH:0
end_of_record
SF:/usr/include/c++/4.8/ext/atomicity.h
FN:48,_ZN9__gnu_cxxL18__exchange_and_addEPVii
FN:65,_ZN9__gnu_cxxL25__exchange_and_add_singleEPii
FN:78,_ZN9__gnu_cxxL27__exchange_and_add_dispatchEPii
FNDA:0,_ZN9__gnu_cxxL18__exchange_and_addEPVii
FNDA:0,_ZN9__gnu_cxxL25__exchange_and_add_singleEPii
FNDA:0,_ZN9__gnu_cxxL27__exchange_and_add_dispatchEPii
FNF:3
FNH:0
DA:48,0
DA:49,0
DA:65,0
DA:67,0
DA:68,0
DA:69,0
DA:78,0
DA:81,0
DA:82,0
DA:84,0
LF:10
LH:0
end_of_record
SF:/usr/include/c++/4.8/ext/new_allocator.h
FN:79,_ZN9__gnu_cxx13new_allocatorIiEC2Ev
FN:79,_ZN9__gnu_cxx13new_allocatorIcEC2Ev
FN:81,_ZN9__gnu_cxx13new_allocatorIcEC2ERKS1_
FN:81,_ZN9__gnu_cxx13new_allocatorIiEC2ERKS1_
FN:86,_ZN9__gnu_cxx13new_allocatorIcED2Ev
FN:86,_ZN9__gnu_cxx13new_allocatorIiED2Ev
FN:99,_ZN9__gnu_cxx13new_allocatorIiE8allocateEmPKv
FN:109,_ZN9__gnu_cxx13new_allocatorIiE10deallocateEPim
FN:113,_ZNK9__gnu_cxx13new_allocatorIiE8max_sizeEv
FNDA:0,_ZN9__gnu_cxx13new_allocatorIiEC2Ev
FNDA:0,_ZN9__gnu_cxx13new_allocatorIcEC2Ev
FNDA:0,_ZN9__gnu_cxx13new_allocatorIiEC2ERKS1_
FNDA:0,_ZN9__gnu_cxx13new_allocatorIcEC2ERKS1_
FNDA:0,_ZN9__gnu_cxx13new_allocatorIiED2Ev
FNDA:0,_ZN9__gnu_cxx13new_allocatorIcED2Ev
FNDA:0,_ZN9__gnu_cxx13new_allocatorIiE8allocateEmPKv
FNDA:0,_ZN9__gnu_cxx13new_allocatorIiE10deallocateEPim
FNDA:0,_ZNK9__gnu_cxx13new_allocatorIiE8max_sizeEv
FNF:9
FNH:0
DA:79,0
DA:81,0
DA:86,0
DA:99,0
DA:101,0
DA:102,0
DA:104,0
DA:109,0
DA:110,0
DA:113,0
DA:114,0
LF:11
LH:0
end_of_record
SF:/usr/include/c++/4.8/ext/type_traits.h
FN:150,_ZN9__gnu_cxx17__is_null_pointerIcEEbPT_
FNDA:0,_ZN9__gnu_cxx17__is_null_pointerIcEEbPT_
FNF:1
FNH:0
DA:150,0
DA:151,0
LF:2
LH:0
end_of_record
SF:/usr/include/c++/4.8/initializer_list
FN:71,_ZNKSt16initializer_listIiE4sizeEv
FN:75,_ZNKSt16initializer_listIiE5beginEv
FN:79,_ZNKSt16initializer_listIiE3endEv
FNDA:0,_ZNKSt16initializer_listIiE4sizeEv
FNDA:0,_ZNKSt16initializer_listIiE5beginEv
FNDA:0,_ZNKSt16initializer_listIiE3endEv
FNF:3
FNH:0
DA:71,0
DA:75,0
DA:79,0
LF:3
LH:0
end_of_record
SF:/usr/include/c++/4.8/iostream
DA:74,2
LF:1
LH:1
end_of_record
SF:/usr/include/c++/4.8/sstream
FN:64,_ZNSt15basic_stringbufIcSt11char_traitsIcESaIcEED2Ev
FN:64,_ZNSt15basic_stringbufIcSt11char_traitsIcESaIcEED0Ev
FNDA:0,_ZNSt15basic_stringbufIcSt11char_traitsIcESaIcEED0Ev
FNDA:0,_ZNSt15basic_stringbufIcSt11char_traitsIcESaIcEED2Ev
FNF:2
FNH:0
DA:64,0
LF:1
LH:0
end_of_record
SF:/usr/include/x86_64-linux-gnu/c++/4.8/bits/gthr-default.h
FN:247,_ZL18__gthread_active_pv
FNDA:0,_ZL18__gthread_active_pv
FNF:1
FNH:0
DA:247,0
DA:251,0
LF:2
LH:0
end_of_record
TN:
SF:/home/ruslan/Facultad/Algo1 2017/TPI2017/TPIalgo1/salaDeReuniones_TPI/src/lib/googletest-master/googletest/include/gtest/gtest.h
FN:2236,_Z13RUN_ALL_TESTSv
FNDA:8,_Z13RUN_ALL_TESTSv
FNF:1
FNH:1
DA:2236,8
DA:2237,8
LF:2
LH:2
end_of_record
SF:/home/ruslan/Facultad/Algo1 2017/TPI2017/TPIalgo1/salaDeReuniones_TPI/src/main.cpp
FN:4,main
FN:8,_Z41__static_initialization_and_destruction_0ii
FN:8,_GLOBAL__sub_I_main
FNDA:8,main
FNDA:8,_GLOBAL__sub_I_main
FNDA:8,_Z41__static_initialization_and_destruction_0ii
FNF:3
FNH:3
DA:4,8
DA:5,8
DA:6,8
DA:7,8
DA:8,24
LF:5
LH:5
end_of_record
SF:/usr/include/c++/4.8/bits/basic_ios.h
FN:46,_ZSt13__check_facetISt5ctypeIcEERKT_PS3_
FNDA:0,_ZSt13__check_facetISt5ctypeIcEERKT_PS3_
FNF:1
FNH:0
DA:46,0
DA:48,0
DA:49,0
DA:50,0
LF:4
LH:0
end_of_record
SF:/usr/include/c++/4.8/bits/char_traits.h
FN:258,_ZNSt11char_traitsIcE6lengthEPKc
FNDA:0,_ZNSt11char_traitsIcE6lengthEPKc
FNF:1
FNH:0
DA:258,0
DA:259,0
LF:2
LH:0
end_of_record
SF:/usr/include/c++/4.8/bits/ios_base.h
FN:163,_ZStorSt12_Ios_IostateS_
FNDA:0,_ZStorSt12_Ios_IostateS_
FNF:1
FNH:0
DA:163,0
DA:164,0
LF:2
LH:0
end_of_record
SF:/usr/include/c++/4.8/bits/locale_facets.h
FN:865,_ZNKSt5ctypeIcE5widenEc
FNDA:0,_ZNKSt5ctypeIcE5widenEc
FNF:1
FNH:0
DA:865,0
DA:867,0
DA:868,0
DA:869,0
DA:870,0
LF:5
LH:0
end_of_record
SF:/usr/include/c++/4.8/iostream
DA:74,8
LF:1
LH:1
end_of_record
